ARM GAS  C:\Users\DABBIR~1\AppData\Local\Temp\cc1W7g0B.s 			page 1


   1              		.syntax unified
   2              		.cpu cortex-m3
   3              		.fpu softvfp
   4              		.eabi_attribute 20, 1
   5              		.eabi_attribute 21, 1
   6              		.eabi_attribute 23, 3
   7              		.eabi_attribute 24, 1
   8              		.eabi_attribute 25, 1
   9              		.eabi_attribute 26, 1
  10              		.eabi_attribute 30, 1
  11              		.eabi_attribute 34, 1
  12              		.eabi_attribute 18, 4
  13              		.thumb
  14              		.syntax unified
  15              		.file	"trcKernelPort.c"
  16              		.text
  17              	.Ltext0:
  18              		.cfi_sections	.debug_frame
  19              		.section	.text.prvTraceGetCurrentTaskHandle,"ax",%progbits
  20              		.align	2
  21              		.global	prvTraceGetCurrentTaskHandle
  22              		.thumb
  23              		.thumb_func
  24              		.type	prvTraceGetCurrentTaskHandle, %function
  25              	prvTraceGetCurrentTaskHandle:
  26              	.LFB111:
  27              		.file 1 "source\\bsw\\TraceRecorder\\trcKernelPort.c"
   1:source\bsw\TraceRecorder/trcKernelPort.c **** /*******************************************************************************
   2:source\bsw\TraceRecorder/trcKernelPort.c ****  * Trace Recorder Library for Tracealyzer v4.1.0
   3:source\bsw\TraceRecorder/trcKernelPort.c ****  * Percepio AB, www.percepio.com
   4:source\bsw\TraceRecorder/trcKernelPort.c ****  *
   5:source\bsw\TraceRecorder/trcKernelPort.c ****  * trcKernelPort.c
   6:source\bsw\TraceRecorder/trcKernelPort.c ****  *
   7:source\bsw\TraceRecorder/trcKernelPort.c ****  * The FreeRTOS-specific parts of the trace recorder
   8:source\bsw\TraceRecorder/trcKernelPort.c ****  *
   9:source\bsw\TraceRecorder/trcKernelPort.c ****  * Terms of Use
  10:source\bsw\TraceRecorder/trcKernelPort.c ****  * This file is part of the trace recorder library (RECORDER), which is the 
  11:source\bsw\TraceRecorder/trcKernelPort.c ****  * intellectual property of Percepio AB (PERCEPIO) and provided under a
  12:source\bsw\TraceRecorder/trcKernelPort.c ****  * license as follows.
  13:source\bsw\TraceRecorder/trcKernelPort.c ****  * The RECORDER may be used free of charge for the purpose of recording data
  14:source\bsw\TraceRecorder/trcKernelPort.c ****  * intended for analysis in PERCEPIO products. It may not be used or modified
  15:source\bsw\TraceRecorder/trcKernelPort.c ****  * for other purposes without explicit permission from PERCEPIO.
  16:source\bsw\TraceRecorder/trcKernelPort.c ****  * You may distribute the RECORDER in its original source code form, assuming
  17:source\bsw\TraceRecorder/trcKernelPort.c ****  * this text (terms of use, disclaimer, copyright notice) is unchanged. You are
  18:source\bsw\TraceRecorder/trcKernelPort.c ****  * allowed to distribute the RECORDER with minor modifications intended for
  19:source\bsw\TraceRecorder/trcKernelPort.c ****  * configuration or porting of the RECORDER, e.g., to allow using it on a 
  20:source\bsw\TraceRecorder/trcKernelPort.c ****  * specific processor, processor family or with a specific communication
  21:source\bsw\TraceRecorder/trcKernelPort.c ****  * interface. Any such modifications should be documented directly below
  22:source\bsw\TraceRecorder/trcKernelPort.c ****  * this comment block.  
  23:source\bsw\TraceRecorder/trcKernelPort.c ****  *
  24:source\bsw\TraceRecorder/trcKernelPort.c ****  * Disclaimer
  25:source\bsw\TraceRecorder/trcKernelPort.c ****  * The RECORDER is being delivered to you AS IS and PERCEPIO makes no warranty
  26:source\bsw\TraceRecorder/trcKernelPort.c ****  * as to its use or performance. PERCEPIO does not and cannot warrant the 
  27:source\bsw\TraceRecorder/trcKernelPort.c ****  * performance or results you may obtain by using the RECORDER or documentation.
  28:source\bsw\TraceRecorder/trcKernelPort.c ****  * PERCEPIO make no warranties, express or implied, as to noninfringement of
  29:source\bsw\TraceRecorder/trcKernelPort.c ****  * third party rights, merchantability, or fitness for any particular purpose.
  30:source\bsw\TraceRecorder/trcKernelPort.c ****  * In no event will PERCEPIO, its technology partners, or distributors be liable
ARM GAS  C:\Users\DABBIR~1\AppData\Local\Temp\cc1W7g0B.s 			page 2


  31:source\bsw\TraceRecorder/trcKernelPort.c ****  * to you for any consequential, incidental or special damages, including any
  32:source\bsw\TraceRecorder/trcKernelPort.c ****  * lost profits or lost savings, even if a representative of PERCEPIO has been
  33:source\bsw\TraceRecorder/trcKernelPort.c ****  * advised of the possibility of such damages, or for any claim by any third
  34:source\bsw\TraceRecorder/trcKernelPort.c ****  * party. Some jurisdictions do not allow the exclusion or limitation of
  35:source\bsw\TraceRecorder/trcKernelPort.c ****  * incidental, consequential or special damages, or the exclusion of implied
  36:source\bsw\TraceRecorder/trcKernelPort.c ****  * warranties or limitations on how long an implied warranty may last, so the
  37:source\bsw\TraceRecorder/trcKernelPort.c ****  * above limitations may not apply to you.
  38:source\bsw\TraceRecorder/trcKernelPort.c ****  *
  39:source\bsw\TraceRecorder/trcKernelPort.c ****  * Tabs are used for indent in this file (1 tab = 4 spaces)
  40:source\bsw\TraceRecorder/trcKernelPort.c ****  *
  41:source\bsw\TraceRecorder/trcKernelPort.c ****  * Copyright Percepio AB, 2018.
  42:source\bsw\TraceRecorder/trcKernelPort.c ****  * www.percepio.com
  43:source\bsw\TraceRecorder/trcKernelPort.c ****  ******************************************************************************/
  44:source\bsw\TraceRecorder/trcKernelPort.c **** 
  45:source\bsw\TraceRecorder/trcKernelPort.c **** #include "ERIKAPorting.h"
  46:source\bsw\TraceRecorder/trcKernelPort.c **** #include "trcKernelPort.h"
  47:source\bsw\TraceRecorder/trcKernelPort.c **** 
  48:source\bsw\TraceRecorder/trcKernelPort.c **** #if (!defined(TRC_USE_TRACEALYZER_RECORDER) && configUSE_TRACE_FACILITY == 1)
  49:source\bsw\TraceRecorder/trcKernelPort.c **** #error Trace Recorder: You need to include trcRecorder.h at the end of your FreeRTOSConfig.h!
  50:source\bsw\TraceRecorder/trcKernelPort.c **** #endif
  51:source\bsw\TraceRecorder/trcKernelPort.c **** 
  52:source\bsw\TraceRecorder/trcKernelPort.c **** #if (defined(TRC_USE_TRACEALYZER_RECORDER) && TRC_USE_TRACEALYZER_RECORDER == 1)
  53:source\bsw\TraceRecorder/trcKernelPort.c **** 
  54:source\bsw\TraceRecorder/trcKernelPort.c **** #ifndef TRC_CFG_INCLUDE_EVENT_GROUP_EVENTS
  55:source\bsw\TraceRecorder/trcKernelPort.c ****  /* TRC_CFG_INCLUDE_EVENT_GROUP_EVENTS is missing in trcConfig.h. */
  56:source\bsw\TraceRecorder/trcKernelPort.c **** #error "TRC_CFG_INCLUDE_EVENT_GROUP_EVENTS must be defined in trcConfig.h."
  57:source\bsw\TraceRecorder/trcKernelPort.c **** #endif
  58:source\bsw\TraceRecorder/trcKernelPort.c **** 
  59:source\bsw\TraceRecorder/trcKernelPort.c **** #ifndef TRC_CFG_INCLUDE_TIMER_EVENTS
  60:source\bsw\TraceRecorder/trcKernelPort.c ****  /* TRC_CFG_INCLUDE_TIMER_EVENTS is missing in trcConfig.h. */
  61:source\bsw\TraceRecorder/trcKernelPort.c **** #error "TRC_CFG_INCLUDE_TIMER_EVENTS must be defined in trcConfig.h."
  62:source\bsw\TraceRecorder/trcKernelPort.c **** #endif
  63:source\bsw\TraceRecorder/trcKernelPort.c **** 
  64:source\bsw\TraceRecorder/trcKernelPort.c **** #ifndef TRC_CFG_INCLUDE_PEND_FUNC_CALL_EVENTS
  65:source\bsw\TraceRecorder/trcKernelPort.c ****  /* TRC_CFG_INCLUDE_PEND_FUNC_CALL_EVENTS is missing in trcConfig.h. */
  66:source\bsw\TraceRecorder/trcKernelPort.c **** #error "TRC_CFG_INCLUDE_PEND_FUNC_CALL_EVENTS must be defined in trcConfig.h."
  67:source\bsw\TraceRecorder/trcKernelPort.c **** #endif
  68:source\bsw\TraceRecorder/trcKernelPort.c **** 
  69:source\bsw\TraceRecorder/trcKernelPort.c **** #ifndef TRC_CFG_INCLUDE_STREAM_BUFFER_EVENTS
  70:source\bsw\TraceRecorder/trcKernelPort.c ****  /* TRC_CFG_INCLUDE_STREAM_BUFFER_EVENTS is missing in trcConfig.h. Define this as 1 if using FreeR
  71:source\bsw\TraceRecorder/trcKernelPort.c **** #error "TRC_CFG_INCLUDE_STREAM_BUFFER_EVENTS must be defined in trcConfig.h."
  72:source\bsw\TraceRecorder/trcKernelPort.c **** #endif
  73:source\bsw\TraceRecorder/trcKernelPort.c **** 
  74:source\bsw\TraceRecorder/trcKernelPort.c **** #if (configUSE_TICKLESS_IDLE != 0 && (TRC_HWTC_TYPE == TRC_OS_TIMER_INCR || TRC_HWTC_TYPE == TRC_OS
  75:source\bsw\TraceRecorder/trcKernelPort.c **** 	/* 	
  76:source\bsw\TraceRecorder/trcKernelPort.c **** 		The below error message is to alert you on the following issue:
  77:source\bsw\TraceRecorder/trcKernelPort.c **** 		
  78:source\bsw\TraceRecorder/trcKernelPort.c **** 		The hardware port selected in trcConfig.h uses the operating system timer for the 
  79:source\bsw\TraceRecorder/trcKernelPort.c **** 		timestamping, i.e., the periodic interrupt timer that drives the OS tick interrupt.
  80:source\bsw\TraceRecorder/trcKernelPort.c **** 				
  81:source\bsw\TraceRecorder/trcKernelPort.c **** 		When using "tickless idle" mode, the recorder needs an independent time source in
  82:source\bsw\TraceRecorder/trcKernelPort.c **** 		order to correctly record the durations of the idle times. Otherwise, the trace may appear
  83:source\bsw\TraceRecorder/trcKernelPort.c **** 		to have a different length than in reality, and the reported CPU load is also affected.
  84:source\bsw\TraceRecorder/trcKernelPort.c **** 		
  85:source\bsw\TraceRecorder/trcKernelPort.c **** 		You may override this warning by defining the TRC_CFG_ACKNOWLEDGE_TICKLESS_IDLE_WARNING
  86:source\bsw\TraceRecorder/trcKernelPort.c **** 		macro in your trcConfig.h file. But then the time scale may be incorrect during
  87:source\bsw\TraceRecorder/trcKernelPort.c **** 		tickless idle periods.
ARM GAS  C:\Users\DABBIR~1\AppData\Local\Temp\cc1W7g0B.s 			page 3


  88:source\bsw\TraceRecorder/trcKernelPort.c **** 		
  89:source\bsw\TraceRecorder/trcKernelPort.c **** 		To get this correct, override the default timestamping by setting TRC_CFG_HARDWARE_PORT
  90:source\bsw\TraceRecorder/trcKernelPort.c **** 		in trcConfig.h to TRC_HARDWARE_PORT_APPLICATION_DEFINED and define the HWTC macros
  91:source\bsw\TraceRecorder/trcKernelPort.c **** 		accordingly, using a free running counter or an independent periodic interrupt timer.
  92:source\bsw\TraceRecorder/trcKernelPort.c **** 		See trcHardwarePort.h for details.
  93:source\bsw\TraceRecorder/trcKernelPort.c **** 				
  94:source\bsw\TraceRecorder/trcKernelPort.c **** 		For ARM Cortex-M3, M4 and M7 MCUs this is not an issue, since the recorder uses the 
  95:source\bsw\TraceRecorder/trcKernelPort.c **** 		DWT cycle counter for timestamping in these cases.		
  96:source\bsw\TraceRecorder/trcKernelPort.c **** 	*/
  97:source\bsw\TraceRecorder/trcKernelPort.c **** 	
  98:source\bsw\TraceRecorder/trcKernelPort.c **** 	#ifndef TRC_CFG_ACKNOWLEDGE_TICKLESS_IDLE_WARNING
  99:source\bsw\TraceRecorder/trcKernelPort.c **** 	#error Trace Recorder: This timestamping mode is not recommended with Tickless Idle.
 100:source\bsw\TraceRecorder/trcKernelPort.c **** 	#endif
 101:source\bsw\TraceRecorder/trcKernelPort.c **** #endif /* (configUSE_TICKLESS_IDLE != 0 && (TRC_HWTC_TYPE == TRC_OS_TIMER_INCR || TRC_HWTC_TYPE == 
 102:source\bsw\TraceRecorder/trcKernelPort.c **** 	
 103:source\bsw\TraceRecorder/trcKernelPort.c **** //#include "task.h"
 104:source\bsw\TraceRecorder/trcKernelPort.c **** //#include "queue.h"
 105:source\bsw\TraceRecorder/trcKernelPort.c **** 
 106:source\bsw\TraceRecorder/trcKernelPort.c **** #if (TRC_CFG_INCLUDE_TIMER_EVENTS == 1 && TRC_CFG_FREERTOS_VERSION >= TRC_FREERTOS_VERSION_8_X)
 107:source\bsw\TraceRecorder/trcKernelPort.c **** /* If the project does not include the FreeRTOS timers, TRC_CFG_INCLUDE_TIMER_EVENTS must be set to
 108:source\bsw\TraceRecorder/trcKernelPort.c **** //#include "timers.h"
 109:source\bsw\TraceRecorder/trcKernelPort.c **** #endif /* (TRC_CFG_INCLUDE_TIMER_EVENTS == 1 && TRC_CFG_FREERTOS_VERSION >= TRC_FREERTOS_VERSION_8_
 110:source\bsw\TraceRecorder/trcKernelPort.c **** 
 111:source\bsw\TraceRecorder/trcKernelPort.c **** #if (TRC_CFG_INCLUDE_EVENT_GROUP_EVENTS == 1 && TRC_CFG_FREERTOS_VERSION >= TRC_FREERTOS_VERSION_8_
 112:source\bsw\TraceRecorder/trcKernelPort.c **** /* If the project does not include the FreeRTOS event groups, TRC_CFG_INCLUDE_TIMER_EVENTS must be 
 113:source\bsw\TraceRecorder/trcKernelPort.c **** #include "event_groups.h"
 114:source\bsw\TraceRecorder/trcKernelPort.c **** #endif /* (TRC_CFG_INCLUDE_EVENT_GROUP_EVENTS == 1 && TRC_CFG_FREERTOS_VERSION >= TRC_FREERTOS_VERS
 115:source\bsw\TraceRecorder/trcKernelPort.c **** 
 116:source\bsw\TraceRecorder/trcKernelPort.c **** #if (TRC_CFG_INCLUDE_STREAM_BUFFER_EVENTS == 1 && TRC_CFG_FREERTOS_VERSION >= TRC_FREERTOS_VERSION_
 117:source\bsw\TraceRecorder/trcKernelPort.c **** /* If the project does not include the FreeRTOS stream buffers, TRC_CFG_INCLUDE_STREAM_BUFFER_EVENT
 118:source\bsw\TraceRecorder/trcKernelPort.c **** #include "stream_buffer.h"
 119:source\bsw\TraceRecorder/trcKernelPort.c **** #endif /* (TRC_CFG_INCLUDE_STREAM_BUFFER_EVENTS == 1 && TRC_CFG_FREERTOS_VERSION >= TRC_FREERTOS_VE
 120:source\bsw\TraceRecorder/trcKernelPort.c **** 
 121:source\bsw\TraceRecorder/trcKernelPort.c **** //uint32_t prvTraceGetQueueNumber(void* handle);
 122:source\bsw\TraceRecorder/trcKernelPort.c **** 
 123:source\bsw\TraceRecorder/trcKernelPort.c **** #if (TRC_CFG_FREERTOS_VERSION < TRC_FREERTOS_VERSION_8_X)
 124:source\bsw\TraceRecorder/trcKernelPort.c **** 
 125:source\bsw\TraceRecorder/trcKernelPort.c **** extern unsigned char ucQueueGetQueueNumber( xQueueHandle pxQueue );
 126:source\bsw\TraceRecorder/trcKernelPort.c **** extern void vQueueSetQueueNumber( xQueueHandle pxQueue, unsigned char ucQueueNumber );
 127:source\bsw\TraceRecorder/trcKernelPort.c **** extern unsigned char ucQueueGetQueueType( xQueueHandle pxQueue );
 128:source\bsw\TraceRecorder/trcKernelPort.c **** 
 129:source\bsw\TraceRecorder/trcKernelPort.c **** uint32_t prvTraceGetQueueNumber(void* handle)
 130:source\bsw\TraceRecorder/trcKernelPort.c **** {
 131:source\bsw\TraceRecorder/trcKernelPort.c **** 	return (uint32_t)ucQueueGetQueueNumber(handle);
 132:source\bsw\TraceRecorder/trcKernelPort.c **** }
 133:source\bsw\TraceRecorder/trcKernelPort.c **** #else 
 134:source\bsw\TraceRecorder/trcKernelPort.c **** /*uint32_t prvTraceGetQueueNumber(void* handle)
 135:source\bsw\TraceRecorder/trcKernelPort.c **** {
 136:source\bsw\TraceRecorder/trcKernelPort.c **** 	return (uint32_t)uxQueueGetQueueNumber(handle);
 137:source\bsw\TraceRecorder/trcKernelPort.c **** }*/
 138:source\bsw\TraceRecorder/trcKernelPort.c **** #endif /* (TRC_CFG_FREERTOS_VERSION < TRC_FREERTOS_VERSION_8_X) */
 139:source\bsw\TraceRecorder/trcKernelPort.c **** 
 140:source\bsw\TraceRecorder/trcKernelPort.c **** /*uint8_t prvTraceGetQueueType(void* handle)
 141:source\bsw\TraceRecorder/trcKernelPort.c **** {
 142:source\bsw\TraceRecorder/trcKernelPort.c **** 	// This is either declared in header file in FreeRTOS 8 and later, or as extern above
 143:source\bsw\TraceRecorder/trcKernelPort.c **** 	return ucQueueGetQueueType(handle);
 144:source\bsw\TraceRecorder/trcKernelPort.c **** }
ARM GAS  C:\Users\DABBIR~1\AppData\Local\Temp\cc1W7g0B.s 			page 4


 145:source\bsw\TraceRecorder/trcKernelPort.c **** */
 146:source\bsw\TraceRecorder/trcKernelPort.c **** 
 147:source\bsw\TraceRecorder/trcKernelPort.c **** /***********************************************************************************************
 148:source\bsw\TraceRecorder/trcKernelPort.c ****   * The TzCtrl task - receives commands from Tracealyzer (start/stop)
 149:source\bsw\TraceRecorder/trcKernelPort.c ****   * Task defined as a cyclic task. 
 150:source\bsw\TraceRecorder/trcKernelPort.c ****   * Alarm started in Task_Init.Can alternatively be initiated in VTraceEnable API
 151:source\bsw\TraceRecorder/trcKernelPort.c **** ************************************************************************************************/
 152:source\bsw\TraceRecorder/trcKernelPort.c **** TASK(TzCtrl)  
 153:source\bsw\TraceRecorder/trcKernelPort.c **** {
 154:source\bsw\TraceRecorder/trcKernelPort.c ****     TracealyzerCommandType msg;
 155:source\bsw\TraceRecorder/trcKernelPort.c **** 	int32_t bytes = 0;
 156:source\bsw\TraceRecorder/trcKernelPort.c **** 	int32_t status = 0;
 157:source\bsw\TraceRecorder/trcKernelPort.c **** 		do
 158:source\bsw\TraceRecorder/trcKernelPort.c **** 		{
 159:source\bsw\TraceRecorder/trcKernelPort.c ****             /* Listen for new commands */
 160:source\bsw\TraceRecorder/trcKernelPort.c **** 			bytes = 0;
 161:source\bsw\TraceRecorder/trcKernelPort.c **** 			status = TRC_STREAM_PORT_READ_DATA(&msg, sizeof(TracealyzerCommandType), (int32_t*)&bytes);
 162:source\bsw\TraceRecorder/trcKernelPort.c **** 
 163:source\bsw\TraceRecorder/trcKernelPort.c **** 			if ((status == 0) && (bytes == sizeof(TracealyzerCommandType)))
 164:source\bsw\TraceRecorder/trcKernelPort.c **** 			{
 165:source\bsw\TraceRecorder/trcKernelPort.c **** 				if (prvIsValidCommand(&msg))
 166:source\bsw\TraceRecorder/trcKernelPort.c **** 				{
 167:source\bsw\TraceRecorder/trcKernelPort.c **** 					prvProcessCommand(&msg); /* Start or Stop currently... */
 168:source\bsw\TraceRecorder/trcKernelPort.c **** 				}
 169:source\bsw\TraceRecorder/trcKernelPort.c **** 			}
 170:source\bsw\TraceRecorder/trcKernelPort.c ****             /* Send periodic data */
 171:source\bsw\TraceRecorder/trcKernelPort.c **** 			bytes = 0;
 172:source\bsw\TraceRecorder/trcKernelPort.c **** 			#if (TRC_STREAM_PORT_USE_INTERNAL_BUFFER == 1)
 173:source\bsw\TraceRecorder/trcKernelPort.c **** 			/* If there is a buffer page, this sends it to the streaming interface using TRC_STREAM_PORT_WRI
 174:source\bsw\TraceRecorder/trcKernelPort.c **** 			bytes = prvPagedEventBufferTransfer();
 175:source\bsw\TraceRecorder/trcKernelPort.c ****             #endif	
 176:source\bsw\TraceRecorder/trcKernelPort.c **** 			/* If there was data sent (bytes != 0), immediately loop around and do all this again. Otherwise
 177:source\bsw\TraceRecorder/trcKernelPort.c **** 		} while (bytes != 0);
 178:source\bsw\TraceRecorder/trcKernelPort.c ****         prvCheckRecorderStatus();
 179:source\bsw\TraceRecorder/trcKernelPort.c ****         TerminateTask();
 180:source\bsw\TraceRecorder/trcKernelPort.c **** } 
 181:source\bsw\TraceRecorder/trcKernelPort.c **** 
 182:source\bsw\TraceRecorder/trcKernelPort.c **** /********************************************************************************
 183:source\bsw\TraceRecorder/trcKernelPort.c ****  * prvTraceGetCurrentTaskHandle
 184:source\bsw\TraceRecorder/trcKernelPort.c ****  * This function returns current TASK ID
 185:source\bsw\TraceRecorder/trcKernelPort.c **** *********************************************************************************/
 186:source\bsw\TraceRecorder/trcKernelPort.c **** 
 187:source\bsw\TraceRecorder/trcKernelPort.c **** void* prvTraceGetCurrentTaskHandle(void)
 188:source\bsw\TraceRecorder/trcKernelPort.c **** {
  28              		.loc 1 188 0
  29              		.cfi_startproc
  30              		@ args = 0, pretend = 0, frame = 8
  31              		@ frame_needed = 0, uses_anonymous_args = 0
  32 0000 00B5     		push	{lr}
  33              		.cfi_def_cfa_offset 4
  34              		.cfi_offset 14, -4
  35 0002 83B0     		sub	sp, sp, #12
  36              		.cfi_def_cfa_offset 16
 189:source\bsw\TraceRecorder/trcKernelPort.c ****     TaskType TASKID;
 190:source\bsw\TraceRecorder/trcKernelPort.c ****     GetTaskID(&TASKID);
  37              		.loc 1 190 0
  38 0004 01A8     		add	r0, sp, #4
ARM GAS  C:\Users\DABBIR~1\AppData\Local\Temp\cc1W7g0B.s 			page 5


  39 0006 FFF7FEFF 		bl	EE_oo_GetTaskID
  40              	.LVL0:
 191:source\bsw\TraceRecorder/trcKernelPort.c **** 	return (void *) TASKID;
 192:source\bsw\TraceRecorder/trcKernelPort.c **** }
  41              		.loc 1 192 0
  42 000a 0198     		ldr	r0, [sp, #4]
  43 000c 03B0     		add	sp, sp, #12
  44              		.cfi_def_cfa_offset 4
  45              		@ sp needed
  46 000e 5DF804FB 		ldr	pc, [sp], #4
  47              		.cfi_endproc
  48              	.LFE111:
  49              		.size	prvTraceGetCurrentTaskHandle, .-prvTraceGetCurrentTaskHandle
  50 0012 00BF     		.section	.text.prvTraceGetTaskNumberLow16,"ax",%progbits
  51              		.align	2
  52              		.global	prvTraceGetTaskNumberLow16
  53              		.thumb
  54              		.thumb_func
  55              		.type	prvTraceGetTaskNumberLow16, %function
  56              	prvTraceGetTaskNumberLow16:
  57              	.LFB112:
 193:source\bsw\TraceRecorder/trcKernelPort.c **** 
 194:source\bsw\TraceRecorder/trcKernelPort.c **** /* Tasks */
 195:source\bsw\TraceRecorder/trcKernelPort.c **** uint16_t prvTraceGetTaskNumberLow16(void* handle)
 196:source\bsw\TraceRecorder/trcKernelPort.c **** {
  58              		.loc 1 196 0
  59              		.cfi_startproc
  60              		@ args = 0, pretend = 0, frame = 0
  61              		@ frame_needed = 0, uses_anonymous_args = 0
  62              		@ link register save eliminated.
  63              	.LVL1:
 197:source\bsw\TraceRecorder/trcKernelPort.c **** 	return 0;
 198:source\bsw\TraceRecorder/trcKernelPort.c **** }
  64              		.loc 1 198 0
  65 0000 0020     		movs	r0, #0
  66              	.LVL2:
  67 0002 7047     		bx	lr
  68              		.cfi_endproc
  69              	.LFE112:
  70              		.size	prvTraceGetTaskNumberLow16, .-prvTraceGetTaskNumberLow16
  71              		.section	.text.prvTraceGetTaskNumberHigh16,"ax",%progbits
  72              		.align	2
  73              		.global	prvTraceGetTaskNumberHigh16
  74              		.thumb
  75              		.thumb_func
  76              		.type	prvTraceGetTaskNumberHigh16, %function
  77              	prvTraceGetTaskNumberHigh16:
  78              	.LFB113:
 199:source\bsw\TraceRecorder/trcKernelPort.c **** 
 200:source\bsw\TraceRecorder/trcKernelPort.c **** uint16_t prvTraceGetTaskNumberHigh16(void* handle)
 201:source\bsw\TraceRecorder/trcKernelPort.c **** {
  79              		.loc 1 201 0
  80              		.cfi_startproc
  81              		@ args = 0, pretend = 0, frame = 0
  82              		@ frame_needed = 0, uses_anonymous_args = 0
  83              		@ link register save eliminated.
  84              	.LVL3:
ARM GAS  C:\Users\DABBIR~1\AppData\Local\Temp\cc1W7g0B.s 			page 6


 202:source\bsw\TraceRecorder/trcKernelPort.c **** 	return 0;
 203:source\bsw\TraceRecorder/trcKernelPort.c **** }
  85              		.loc 1 203 0
  86 0000 0020     		movs	r0, #0
  87              	.LVL4:
  88 0002 7047     		bx	lr
  89              		.cfi_endproc
  90              	.LFE113:
  91              		.size	prvTraceGetTaskNumberHigh16, .-prvTraceGetTaskNumberHigh16
  92              		.section	.text.prvTraceSetTaskNumberLow16,"ax",%progbits
  93              		.align	2
  94              		.global	prvTraceSetTaskNumberLow16
  95              		.thumb
  96              		.thumb_func
  97              		.type	prvTraceSetTaskNumberLow16, %function
  98              	prvTraceSetTaskNumberLow16:
  99              	.LFB114:
 204:source\bsw\TraceRecorder/trcKernelPort.c **** 
 205:source\bsw\TraceRecorder/trcKernelPort.c **** void prvTraceSetTaskNumberLow16(void* handle, uint16_t value)
 206:source\bsw\TraceRecorder/trcKernelPort.c **** {
 100              		.loc 1 206 0
 101              		.cfi_startproc
 102              		@ args = 0, pretend = 0, frame = 0
 103              		@ frame_needed = 0, uses_anonymous_args = 0
 104              		@ link register save eliminated.
 105              	.LVL5:
 106 0000 7047     		bx	lr
 107              		.cfi_endproc
 108              	.LFE114:
 109              		.size	prvTraceSetTaskNumberLow16, .-prvTraceSetTaskNumberLow16
 110 0002 00BF     		.section	.text.prvTraceSetTaskNumberHigh16,"ax",%progbits
 111              		.align	2
 112              		.global	prvTraceSetTaskNumberHigh16
 113              		.thumb
 114              		.thumb_func
 115              		.type	prvTraceSetTaskNumberHigh16, %function
 116              	prvTraceSetTaskNumberHigh16:
 117              	.LFB115:
 207:source\bsw\TraceRecorder/trcKernelPort.c **** 
 208:source\bsw\TraceRecorder/trcKernelPort.c **** }
 209:source\bsw\TraceRecorder/trcKernelPort.c **** 
 210:source\bsw\TraceRecorder/trcKernelPort.c **** void prvTraceSetTaskNumberHigh16(void* handle, uint16_t value)
 211:source\bsw\TraceRecorder/trcKernelPort.c **** {
 118              		.loc 1 211 0
 119              		.cfi_startproc
 120              		@ args = 0, pretend = 0, frame = 0
 121              		@ frame_needed = 0, uses_anonymous_args = 0
 122              		@ link register save eliminated.
 123              	.LVL6:
 124 0000 7047     		bx	lr
 125              		.cfi_endproc
 126              	.LFE115:
 127              		.size	prvTraceSetTaskNumberHigh16, .-prvTraceSetTaskNumberHigh16
 128 0002 00BF     		.section	.text.vTraceEnable,"ax",%progbits
 129              		.align	2
 130              		.global	vTraceEnable
 131              		.thumb
ARM GAS  C:\Users\DABBIR~1\AppData\Local\Temp\cc1W7g0B.s 			page 7


 132              		.thumb_func
 133              		.type	vTraceEnable, %function
 134              	vTraceEnable:
 135              	.LFB116:
 212:source\bsw\TraceRecorder/trcKernelPort.c **** 
 213:source\bsw\TraceRecorder/trcKernelPort.c **** }
 214:source\bsw\TraceRecorder/trcKernelPort.c **** 
 215:source\bsw\TraceRecorder/trcKernelPort.c **** /*
 216:source\bsw\TraceRecorder/trcKernelPort.c ****  * ERIKA Changes- removed the below queue functions corresponding to TX version update for the ring
 217:source\bsw\TraceRecorder/trcKernelPort.c ****  * In general the implementation for these functions is specific to FreeRTOS which is not taken ove
 218:source\bsw\TraceRecorder/trcKernelPort.c **** */
 219:source\bsw\TraceRecorder/trcKernelPort.c **** /*
 220:source\bsw\TraceRecorder/trcKernelPort.c **** uint16_t prvTraceGetQueueNumberLow16(void* handle)
 221:source\bsw\TraceRecorder/trcKernelPort.c **** {
 222:source\bsw\TraceRecorder/trcKernelPort.c **** 	return TRACE_GET_LOW16(prvTraceGetQueueNumber(handle));
 223:source\bsw\TraceRecorder/trcKernelPort.c **** }
 224:source\bsw\TraceRecorder/trcKernelPort.c **** 
 225:source\bsw\TraceRecorder/trcKernelPort.c **** uint16_t prvTraceGetQueueNumberHigh16(void* handle)
 226:source\bsw\TraceRecorder/trcKernelPort.c **** {
 227:source\bsw\TraceRecorder/trcKernelPort.c **** 	return TRACE_GET_HIGH16(prvTraceGetQueueNumber(handle));
 228:source\bsw\TraceRecorder/trcKernelPort.c **** }
 229:source\bsw\TraceRecorder/trcKernelPort.c **** 
 230:source\bsw\TraceRecorder/trcKernelPort.c **** void prvTraceSetQueueNumberLow16(void* handle, uint16_t value)
 231:source\bsw\TraceRecorder/trcKernelPort.c **** {
 232:source\bsw\TraceRecorder/trcKernelPort.c **** 	vQueueSetQueueNumber(handle, TRACE_SET_LOW16(prvTraceGetQueueNumber(handle), value));
 233:source\bsw\TraceRecorder/trcKernelPort.c **** }
 234:source\bsw\TraceRecorder/trcKernelPort.c **** 
 235:source\bsw\TraceRecorder/trcKernelPort.c **** void prvTraceSetQueueNumberHigh16(void* handle, uint16_t value)
 236:source\bsw\TraceRecorder/trcKernelPort.c **** {
 237:source\bsw\TraceRecorder/trcKernelPort.c **** 	vQueueSetQueueNumber(handle, TRACE_SET_HIGH16(prvTraceGetQueueNumber(handle), value));
 238:source\bsw\TraceRecorder/trcKernelPort.c **** }
 239:source\bsw\TraceRecorder/trcKernelPort.c **** */
 240:source\bsw\TraceRecorder/trcKernelPort.c **** #if (TRC_CFG_INCLUDE_TIMER_EVENTS == 1 && TRC_CFG_FREERTOS_VERSION >= TRC_FREERTOS_VERSION_10_0_0)
 241:source\bsw\TraceRecorder/trcKernelPort.c **** 
 242:source\bsw\TraceRecorder/trcKernelPort.c **** 
 243:source\bsw\TraceRecorder/trcKernelPort.c **** #endif /* (TRC_CFG_INCLUDE_TIMER_EVENTS == 1 && TRC_CFG_FREERTOS_VERSION >= TRC_FREERTOS_VERSION_10
 244:source\bsw\TraceRecorder/trcKernelPort.c **** 
 245:source\bsw\TraceRecorder/trcKernelPort.c **** #if (TRC_CFG_INCLUDE_EVENT_GROUP_EVENTS == 1 && TRC_CFG_FREERTOS_VERSION >= TRC_FREERTOS_VERSION_10
 246:source\bsw\TraceRecorder/trcKernelPort.c **** 
 247:source\bsw\TraceRecorder/trcKernelPort.c **** uint16_t prvTraceGetEventGroupNumberLow16(void* handle)
 248:source\bsw\TraceRecorder/trcKernelPort.c **** {
 249:source\bsw\TraceRecorder/trcKernelPort.c **** 	return TRACE_GET_LOW16(uxEventGroupGetNumber(handle));
 250:source\bsw\TraceRecorder/trcKernelPort.c **** }
 251:source\bsw\TraceRecorder/trcKernelPort.c **** 
 252:source\bsw\TraceRecorder/trcKernelPort.c **** uint16_t prvTraceGetEventGroupNumberHigh16(void* handle)
 253:source\bsw\TraceRecorder/trcKernelPort.c **** {
 254:source\bsw\TraceRecorder/trcKernelPort.c **** 	return TRACE_GET_HIGH16(uxEventGroupGetNumber(handle));
 255:source\bsw\TraceRecorder/trcKernelPort.c **** }
 256:source\bsw\TraceRecorder/trcKernelPort.c **** 
 257:source\bsw\TraceRecorder/trcKernelPort.c **** void prvTraceSetEventGroupNumberLow16(void* handle, uint16_t value)
 258:source\bsw\TraceRecorder/trcKernelPort.c **** {
 259:source\bsw\TraceRecorder/trcKernelPort.c **** 	vEventGroupSetNumber(handle, TRACE_SET_LOW16(uxEventGroupGetNumber(handle), value));
 260:source\bsw\TraceRecorder/trcKernelPort.c **** }
 261:source\bsw\TraceRecorder/trcKernelPort.c **** 
 262:source\bsw\TraceRecorder/trcKernelPort.c **** void prvTraceSetEventGroupNumberHigh16(void* handle, uint16_t value)
 263:source\bsw\TraceRecorder/trcKernelPort.c **** {
 264:source\bsw\TraceRecorder/trcKernelPort.c **** 	vEventGroupSetNumber(handle, TRACE_SET_HIGH16(uxEventGroupGetNumber(handle), value));
ARM GAS  C:\Users\DABBIR~1\AppData\Local\Temp\cc1W7g0B.s 			page 8


 265:source\bsw\TraceRecorder/trcKernelPort.c **** }
 266:source\bsw\TraceRecorder/trcKernelPort.c **** #endif /* (TRC_CFG_INCLUDE_EVENT_GROUP_EVENTS == 1 && TRC_CFG_FREERTOS_VERSION >= TRC_FREERTOS_VERS
 267:source\bsw\TraceRecorder/trcKernelPort.c **** 
 268:source\bsw\TraceRecorder/trcKernelPort.c **** #if (TRC_CFG_INCLUDE_STREAM_BUFFER_EVENTS == 1 && TRC_CFG_FREERTOS_VERSION >= TRC_FREERTOS_VERSION_
 269:source\bsw\TraceRecorder/trcKernelPort.c **** 
 270:source\bsw\TraceRecorder/trcKernelPort.c **** uint16_t prvTraceGetStreamBufferNumberLow16(void* handle)
 271:source\bsw\TraceRecorder/trcKernelPort.c **** {
 272:source\bsw\TraceRecorder/trcKernelPort.c **** 	return TRACE_GET_LOW16(uxStreamBufferGetStreamBufferNumber(handle));
 273:source\bsw\TraceRecorder/trcKernelPort.c **** }
 274:source\bsw\TraceRecorder/trcKernelPort.c **** 
 275:source\bsw\TraceRecorder/trcKernelPort.c **** uint16_t prvTraceGetStreamBufferNumberHigh16(void* handle)
 276:source\bsw\TraceRecorder/trcKernelPort.c **** {
 277:source\bsw\TraceRecorder/trcKernelPort.c **** 	return TRACE_GET_HIGH16(uxStreamBufferGetStreamBufferNumber(handle));
 278:source\bsw\TraceRecorder/trcKernelPort.c **** }
 279:source\bsw\TraceRecorder/trcKernelPort.c **** 
 280:source\bsw\TraceRecorder/trcKernelPort.c **** void prvTraceSetStreamBufferNumberLow16(void* handle, uint16_t value)
 281:source\bsw\TraceRecorder/trcKernelPort.c **** {
 282:source\bsw\TraceRecorder/trcKernelPort.c **** 	vStreamBufferSetStreamBufferNumber(handle, TRACE_SET_LOW16(uxStreamBufferGetStreamBufferNumber(han
 283:source\bsw\TraceRecorder/trcKernelPort.c **** }
 284:source\bsw\TraceRecorder/trcKernelPort.c **** 
 285:source\bsw\TraceRecorder/trcKernelPort.c **** void prvTraceSetStreamBufferNumberHigh16(void* handle, uint16_t value)
 286:source\bsw\TraceRecorder/trcKernelPort.c **** {
 287:source\bsw\TraceRecorder/trcKernelPort.c **** 	vStreamBufferSetStreamBufferNumber(handle, TRACE_SET_HIGH16(uxStreamBufferGetStreamBufferNumber(ha
 288:source\bsw\TraceRecorder/trcKernelPort.c **** }
 289:source\bsw\TraceRecorder/trcKernelPort.c **** #endif /* (TRC_CFG_INCLUDE_STREAM_BUFFER_EVENTS == 1 && TRC_CFG_FREERTOS_VERSION >= TRC_FREERTOS_VE
 290:source\bsw\TraceRecorder/trcKernelPort.c **** 
 291:source\bsw\TraceRecorder/trcKernelPort.c **** #if (TRC_CFG_RECORDER_MODE == TRC_RECORDER_MODE_STREAMING)
 292:source\bsw\TraceRecorder/trcKernelPort.c **** 	
 293:source\bsw\TraceRecorder/trcKernelPort.c **** //static void* pCurrentTCB = NULL; ERIKA OS Changes
 294:source\bsw\TraceRecorder/trcKernelPort.c **** #if (defined(configENABLE_BACKWARD_COMPATIBILITY) && configENABLE_BACKWARD_COMPATIBILITY == 0)
 295:source\bsw\TraceRecorder/trcKernelPort.c **** /* We're explicitly not using compatibility mode */
 296:source\bsw\TraceRecorder/trcKernelPort.c **** static TaskHandle_t HandleTzCtrl = NULL;       /* TzCtrl task TCB */
 297:source\bsw\TraceRecorder/trcKernelPort.c **** #else
 298:source\bsw\TraceRecorder/trcKernelPort.c **** /* We're using compatibility mode, or we're running an old kernel */
 299:source\bsw\TraceRecorder/trcKernelPort.c **** //static xTaskHandle HandleTzCtrl = NULL;       /* TzCtrl task TCB */
 300:source\bsw\TraceRecorder/trcKernelPort.c **** #endif
 301:source\bsw\TraceRecorder/trcKernelPort.c **** 
 302:source\bsw\TraceRecorder/trcKernelPort.c **** #if defined(configSUPPORT_STATIC_ALLOCATION)
 303:source\bsw\TraceRecorder/trcKernelPort.c **** #if (configSUPPORT_STATIC_ALLOCATION == 1)
 304:source\bsw\TraceRecorder/trcKernelPort.c **** static StackType_t stackTzCtrl[TRC_CFG_CTRL_TASK_STACK_SIZE];
 305:source\bsw\TraceRecorder/trcKernelPort.c **** static StaticTask_t tcbTzCtrl;
 306:source\bsw\TraceRecorder/trcKernelPort.c **** #endif
 307:source\bsw\TraceRecorder/trcKernelPort.c **** #endif
 308:source\bsw\TraceRecorder/trcKernelPort.c **** 
 309:source\bsw\TraceRecorder/trcKernelPort.c **** /* Monitored by TzCtrl task, that give warnings as User Events */
 310:source\bsw\TraceRecorder/trcKernelPort.c **** extern volatile uint32_t NoRoomForSymbol;
 311:source\bsw\TraceRecorder/trcKernelPort.c **** extern volatile uint32_t NoRoomForObjectData;
 312:source\bsw\TraceRecorder/trcKernelPort.c **** extern volatile uint32_t LongestSymbolName;
 313:source\bsw\TraceRecorder/trcKernelPort.c **** extern volatile uint32_t MaxBytesTruncated;
 314:source\bsw\TraceRecorder/trcKernelPort.c **** 
 315:source\bsw\TraceRecorder/trcKernelPort.c **** /* Keeps track of previous values, to only react on changes. */
 316:source\bsw\TraceRecorder/trcKernelPort.c **** static uint32_t NoRoomForSymbol_last = 0;
 317:source\bsw\TraceRecorder/trcKernelPort.c **** static uint32_t NoRoomForObjectData_last = 0;
 318:source\bsw\TraceRecorder/trcKernelPort.c **** static uint32_t LongestSymbolName_last = 0;
 319:source\bsw\TraceRecorder/trcKernelPort.c **** static uint32_t MaxBytesTruncated_last = 0;
 320:source\bsw\TraceRecorder/trcKernelPort.c **** 
 321:source\bsw\TraceRecorder/trcKernelPort.c **** /* User Event Channel for giving warnings regarding NoRoomForSymbol etc. */
ARM GAS  C:\Users\DABBIR~1\AppData\Local\Temp\cc1W7g0B.s 			page 9


 322:source\bsw\TraceRecorder/trcKernelPort.c **** traceString trcWarningChannel;
 323:source\bsw\TraceRecorder/trcKernelPort.c **** 
 324:source\bsw\TraceRecorder/trcKernelPort.c **** #define TRC_PORT_MALLOC(size) pvPortMalloc(size)
 325:source\bsw\TraceRecorder/trcKernelPort.c **** 
 326:source\bsw\TraceRecorder/trcKernelPort.c **** TRC_STREAM_PORT_ALLOCATE_FIELDS()
 327:source\bsw\TraceRecorder/trcKernelPort.c **** 
 328:source\bsw\TraceRecorder/trcKernelPort.c **** 
 329:source\bsw\TraceRecorder/trcKernelPort.c **** 
 330:source\bsw\TraceRecorder/trcKernelPort.c **** extern void prvTraceWarning(int errCode);
 331:source\bsw\TraceRecorder/trcKernelPort.c **** 
 332:source\bsw\TraceRecorder/trcKernelPort.c **** 
 333:source\bsw\TraceRecorder/trcKernelPort.c **** //static portTASK_FUNCTION( TzCtrl, pvParameters ); //ERIKA OS Changes This is declaration of Trz_C
 334:source\bsw\TraceRecorder/trcKernelPort.c **** 
 335:source\bsw\TraceRecorder/trcKernelPort.c **** /*******************************************************************************
 336:source\bsw\TraceRecorder/trcKernelPort.c ****  * vTraceEnable
 337:source\bsw\TraceRecorder/trcKernelPort.c ****  *
 338:source\bsw\TraceRecorder/trcKernelPort.c ****  * Function that enables the tracing and creates the control task. It will halt
 339:source\bsw\TraceRecorder/trcKernelPort.c ****  * execution until a Start command has been received if haltUntilStart is true.
 340:source\bsw\TraceRecorder/trcKernelPort.c ****  *
 341:source\bsw\TraceRecorder/trcKernelPort.c ****  ******************************************************************************/
 342:source\bsw\TraceRecorder/trcKernelPort.c **** void vTraceEnable(int startOption)
 343:source\bsw\TraceRecorder/trcKernelPort.c **** {
 136              		.loc 1 343 0
 137              		.cfi_startproc
 138              		@ args = 0, pretend = 0, frame = 16
 139              		@ frame_needed = 0, uses_anonymous_args = 0
 140              	.LVL7:
 141              		.loc 1 343 0
 142 0000 10B5     		push	{r4, lr}
 143              		.cfi_def_cfa_offset 8
 144              		.cfi_offset 4, -8
 145              		.cfi_offset 14, -4
 146 0002 84B0     		sub	sp, sp, #16
 147              		.cfi_def_cfa_offset 24
 148 0004 0446     		mov	r4, r0
 344:source\bsw\TraceRecorder/trcKernelPort.c **** 	int32_t bytes = 0;
 149              		.loc 1 344 0
 150 0006 0023     		movs	r3, #0
 151 0008 0393     		str	r3, [sp, #12]
 345:source\bsw\TraceRecorder/trcKernelPort.c **** 	int32_t status;
 346:source\bsw\TraceRecorder/trcKernelPort.c **** 	extern uint32_t RecorderEnabled;
 347:source\bsw\TraceRecorder/trcKernelPort.c **** 	TracealyzerCommandType msg;
 348:source\bsw\TraceRecorder/trcKernelPort.c **** 
 349:source\bsw\TraceRecorder/trcKernelPort.c **** 	/* Only do this first time...*/
 350:source\bsw\TraceRecorder/trcKernelPort.c **** 	//if (HandleTzCtrl == NULL)
 351:source\bsw\TraceRecorder/trcKernelPort.c **** 	//{
 352:source\bsw\TraceRecorder/trcKernelPort.c **** 		TRC_STREAM_PORT_INIT();
 152              		.loc 1 352 0
 153 000a FFF7FEFF 		bl	trcUART_init
 154              	.LVL8:
 353:source\bsw\TraceRecorder/trcKernelPort.c **** 		
 354:source\bsw\TraceRecorder/trcKernelPort.c **** 		/* Note: Requires that TRC_CFG_INCLUDE_USER_EVENTS is 1. */
 355:source\bsw\TraceRecorder/trcKernelPort.c **** 		trcWarningChannel = xTraceRegisterString("Warnings from Recorder");
 155              		.loc 1 355 0
 156 000e 1F48     		ldr	r0, .L16
 157 0010 FFF7FEFF 		bl	xTraceRegisterString
 158              	.LVL9:
ARM GAS  C:\Users\DABBIR~1\AppData\Local\Temp\cc1W7g0B.s 			page 10


 159 0014 1E4B     		ldr	r3, .L16+4
 160 0016 1860     		str	r0, [r3]
 356:source\bsw\TraceRecorder/trcKernelPort.c **** 
 357:source\bsw\TraceRecorder/trcKernelPort.c **** 		/* Creates the TzCtrl task - receives trace commands (start, stop, ...) */
 358:source\bsw\TraceRecorder/trcKernelPort.c **** 		#if defined(configSUPPORT_STATIC_ALLOCATION) && (configSUPPORT_STATIC_ALLOCATION == 1)
 359:source\bsw\TraceRecorder/trcKernelPort.c **** 		HandleTzCtrl = xTaskCreateStatic(TzCtrl, STRING_CAST("TzCtrl"), TRC_CFG_CTRL_TASK_STACK_SIZE, NUL
 360:source\bsw\TraceRecorder/trcKernelPort.c **** 		#else
 361:source\bsw\TraceRecorder/trcKernelPort.c **** 		//xTaskCreate( TzCtrl, STRING_CAST("TzCtrl"), TRC_CFG_CTRL_TASK_STACK_SIZE, NULL, TRC_CFG_CTRL_TA
 362:source\bsw\TraceRecorder/trcKernelPort.c **** 		#endif
 363:source\bsw\TraceRecorder/trcKernelPort.c **** 
 364:source\bsw\TraceRecorder/trcKernelPort.c **** 		//if (HandleTzCtrl == NULL)
 365:source\bsw\TraceRecorder/trcKernelPort.c **** 		//{
 366:source\bsw\TraceRecorder/trcKernelPort.c **** 		//	prvTraceError(PSF_ERROR_TZCTRLTASK_NOT_CREATED);
 367:source\bsw\TraceRecorder/trcKernelPort.c **** 		//}
 368:source\bsw\TraceRecorder/trcKernelPort.c **** 	//}
 369:source\bsw\TraceRecorder/trcKernelPort.c **** 
 370:source\bsw\TraceRecorder/trcKernelPort.c **** 	if (startOption == TRC_START_AWAIT_HOST)
 161              		.loc 1 370 0
 162 0018 022C     		cmp	r4, #2
 163 001a 26D1     		bne	.L8
 164              	.LVL10:
 165              	.L12:
 371:source\bsw\TraceRecorder/trcKernelPort.c **** 	{
 372:source\bsw\TraceRecorder/trcKernelPort.c **** 		/* We keep trying to read commands until the recorder has been started */
 373:source\bsw\TraceRecorder/trcKernelPort.c **** 		do
 374:source\bsw\TraceRecorder/trcKernelPort.c **** 		{
 375:source\bsw\TraceRecorder/trcKernelPort.c **** 			bytes = 0;
 166              		.loc 1 375 0
 167 001c 04AA     		add	r2, sp, #16
 168 001e 0023     		movs	r3, #0
 169 0020 42F8043D 		str	r3, [r2, #-4]!
 376:source\bsw\TraceRecorder/trcKernelPort.c **** 			
 377:source\bsw\TraceRecorder/trcKernelPort.c **** 			status = TRC_STREAM_PORT_READ_DATA(&msg, sizeof(TracealyzerCommandType), (int32_t*)&bytes);
 170              		.loc 1 377 0
 171 0024 0821     		movs	r1, #8
 172 0026 01A8     		add	r0, sp, #4
 173 0028 FFF7FEFF 		bl	trcUARTReceive
 174              	.LVL11:
 378:source\bsw\TraceRecorder/trcKernelPort.c **** 			
 379:source\bsw\TraceRecorder/trcKernelPort.c **** 			if (status != 0)
 175              		.loc 1 379 0
 176 002c 0446     		mov	r4, r0
 177 002e 10B1     		cbz	r0, .L9
 380:source\bsw\TraceRecorder/trcKernelPort.c **** 			{
 381:source\bsw\TraceRecorder/trcKernelPort.c **** 				prvTraceWarning(PSF_WARNING_STREAM_PORT_READ);
 178              		.loc 1 381 0
 179 0030 6920     		movs	r0, #105
 180              	.LVL12:
 181 0032 FFF7FEFF 		bl	prvTraceWarning
 182              	.LVL13:
 183              	.L9:
 382:source\bsw\TraceRecorder/trcKernelPort.c **** 			}
 383:source\bsw\TraceRecorder/trcKernelPort.c **** 
 384:source\bsw\TraceRecorder/trcKernelPort.c **** 			if ((status == 0) && (bytes == sizeof(TracealyzerCommandType)))
 184              		.loc 1 384 0
 185 0036 9CB9     		cbnz	r4, .L10
 186              		.loc 1 384 0 is_stmt 0 discriminator 1
ARM GAS  C:\Users\DABBIR~1\AppData\Local\Temp\cc1W7g0B.s 			page 11


 187 0038 039B     		ldr	r3, [sp, #12]
 188 003a 082B     		cmp	r3, #8
 189 003c 10D1     		bne	.L10
 385:source\bsw\TraceRecorder/trcKernelPort.c **** 			{
 386:source\bsw\TraceRecorder/trcKernelPort.c **** 				if (prvIsValidCommand(&msg))
 190              		.loc 1 386 0 is_stmt 1
 191 003e 01A8     		add	r0, sp, #4
 192 0040 FFF7FEFF 		bl	prvIsValidCommand
 193              	.LVL14:
 194 0044 60B1     		cbz	r0, .L10
 387:source\bsw\TraceRecorder/trcKernelPort.c **** 				{
 388:source\bsw\TraceRecorder/trcKernelPort.c **** 					if (msg.cmdCode == CMD_SET_ACTIVE && msg.param1 == 1)
 195              		.loc 1 388 0
 196 0046 9DF80430 		ldrb	r3, [sp, #4]	@ zero_extendqisi2
 197 004a 012B     		cmp	r3, #1
 198 004c 05D1     		bne	.L11
 199              		.loc 1 388 0 is_stmt 0 discriminator 1
 200 004e 9DF80530 		ldrb	r3, [sp, #5]	@ zero_extendqisi2
 201 0052 012B     		cmp	r3, #1
 202 0054 01D1     		bne	.L11
 389:source\bsw\TraceRecorder/trcKernelPort.c **** 					{
 390:source\bsw\TraceRecorder/trcKernelPort.c **** 						/* On start, init and reset the timestamping */
 391:source\bsw\TraceRecorder/trcKernelPort.c **** 						TRC_PORT_SPECIFIC_INIT();
 203              		.loc 1 391 0 is_stmt 1
 204 0056 FFF7FEFF 		bl	prvTraceInitCortexM
 205              	.LVL15:
 206              	.L11:
 392:source\bsw\TraceRecorder/trcKernelPort.c **** 					}
 393:source\bsw\TraceRecorder/trcKernelPort.c **** 					
 394:source\bsw\TraceRecorder/trcKernelPort.c **** 					prvProcessCommand(&msg);
 207              		.loc 1 394 0
 208 005a 01A8     		add	r0, sp, #4
 209 005c FFF7FEFF 		bl	prvProcessCommand
 210              	.LVL16:
 211              	.L10:
 395:source\bsw\TraceRecorder/trcKernelPort.c **** 				}
 396:source\bsw\TraceRecorder/trcKernelPort.c **** 			}
 397:source\bsw\TraceRecorder/trcKernelPort.c **** 		}
 398:source\bsw\TraceRecorder/trcKernelPort.c **** 		while (RecorderEnabled == 0);
 212              		.loc 1 398 0
 213 0060 0C4B     		ldr	r3, .L16+8
 214 0062 1B68     		ldr	r3, [r3]
 215 0064 002B     		cmp	r3, #0
 216 0066 D9D0     		beq	.L12
 217 0068 0EE0     		b	.L7
 218              	.LVL17:
 219              	.L8:
 399:source\bsw\TraceRecorder/trcKernelPort.c **** 	}
 400:source\bsw\TraceRecorder/trcKernelPort.c **** 	else if (startOption == TRC_START)
 220              		.loc 1 400 0
 221 006a 012C     		cmp	r4, #1
 222 006c 0AD1     		bne	.L14
 401:source\bsw\TraceRecorder/trcKernelPort.c **** 	{
 402:source\bsw\TraceRecorder/trcKernelPort.c **** 		/* We start streaming directly - this assumes that the interface is ready! */
 403:source\bsw\TraceRecorder/trcKernelPort.c **** 		TRC_PORT_SPECIFIC_INIT();
 223              		.loc 1 403 0
 224 006e FFF7FEFF 		bl	prvTraceInitCortexM
ARM GAS  C:\Users\DABBIR~1\AppData\Local\Temp\cc1W7g0B.s 			page 12


 225              	.LVL18:
 404:source\bsw\TraceRecorder/trcKernelPort.c **** 		
 405:source\bsw\TraceRecorder/trcKernelPort.c **** 		msg.cmdCode = CMD_SET_ACTIVE;
 226              		.loc 1 405 0
 227 0072 0123     		movs	r3, #1
 228 0074 8DF80430 		strb	r3, [sp, #4]
 406:source\bsw\TraceRecorder/trcKernelPort.c **** 		msg.param1 = 1;
 229              		.loc 1 406 0
 230 0078 8DF80530 		strb	r3, [sp, #5]
 407:source\bsw\TraceRecorder/trcKernelPort.c **** 		prvProcessCommand(&msg);
 231              		.loc 1 407 0
 232 007c 01A8     		add	r0, sp, #4
 233 007e FFF7FEFF 		bl	prvProcessCommand
 234              	.LVL19:
 235 0082 01E0     		b	.L7
 236              	.L14:
 408:source\bsw\TraceRecorder/trcKernelPort.c **** 	}
 409:source\bsw\TraceRecorder/trcKernelPort.c **** 	else
 410:source\bsw\TraceRecorder/trcKernelPort.c **** 	{
 411:source\bsw\TraceRecorder/trcKernelPort.c **** 		/* On TRC_INIT */
 412:source\bsw\TraceRecorder/trcKernelPort.c **** 		TRC_PORT_SPECIFIC_INIT();
 237              		.loc 1 412 0
 238 0084 FFF7FEFF 		bl	prvTraceInitCortexM
 239              	.LVL20:
 240              	.L7:
 413:source\bsw\TraceRecorder/trcKernelPort.c **** 	}
 414:source\bsw\TraceRecorder/trcKernelPort.c **** }
 241              		.loc 1 414 0
 242 0088 04B0     		add	sp, sp, #16
 243              		.cfi_def_cfa_offset 8
 244              		@ sp needed
 245 008a 10BD     		pop	{r4, pc}
 246              	.L17:
 247              		.align	2
 248              	.L16:
 249 008c 00000000 		.word	.LC0
 250 0090 00000000 		.word	trcWarningChannel
 251 0094 00000000 		.word	RecorderEnabled
 252              		.cfi_endproc
 253              	.LFE116:
 254              		.size	vTraceEnable, .-vTraceEnable
 255              		.section	.text.vTraceSetQueueName,"ax",%progbits
 256              		.align	2
 257              		.global	vTraceSetQueueName
 258              		.thumb
 259              		.thumb_func
 260              		.type	vTraceSetQueueName, %function
 261              	vTraceSetQueueName:
 262              	.LFB117:
 415:source\bsw\TraceRecorder/trcKernelPort.c **** 
 416:source\bsw\TraceRecorder/trcKernelPort.c **** #if (TRC_CFG_SCHEDULING_ONLY == 0)
 417:source\bsw\TraceRecorder/trcKernelPort.c **** /*******************************************************************************
 418:source\bsw\TraceRecorder/trcKernelPort.c ****  * vTraceSetQueueName(void* object, const char* name)
 419:source\bsw\TraceRecorder/trcKernelPort.c ****  *
 420:source\bsw\TraceRecorder/trcKernelPort.c ****  * Parameter object: pointer to the Queue that shall be named
 421:source\bsw\TraceRecorder/trcKernelPort.c ****  * Parameter name: the name to set (const string literal)
 422:source\bsw\TraceRecorder/trcKernelPort.c ****  *
ARM GAS  C:\Users\DABBIR~1\AppData\Local\Temp\cc1W7g0B.s 			page 13


 423:source\bsw\TraceRecorder/trcKernelPort.c ****  * Sets a name for Queue objects for display in Tracealyzer.
 424:source\bsw\TraceRecorder/trcKernelPort.c ****  ******************************************************************************/
 425:source\bsw\TraceRecorder/trcKernelPort.c **** void vTraceSetQueueName(void* object, const char* name)
 426:source\bsw\TraceRecorder/trcKernelPort.c **** {
 263              		.loc 1 426 0
 264              		.cfi_startproc
 265              		@ args = 0, pretend = 0, frame = 0
 266              		@ frame_needed = 0, uses_anonymous_args = 0
 267              	.LVL21:
 268 0000 08B5     		push	{r3, lr}
 269              		.cfi_def_cfa_offset 8
 270              		.cfi_offset 3, -8
 271              		.cfi_offset 14, -4
 427:source\bsw\TraceRecorder/trcKernelPort.c **** 	vTraceStoreKernelObjectName(object, name);
 272              		.loc 1 427 0
 273 0002 FFF7FEFF 		bl	vTraceStoreKernelObjectName
 274              	.LVL22:
 275 0006 08BD     		pop	{r3, pc}
 276              		.cfi_endproc
 277              	.LFE117:
 278              		.size	vTraceSetQueueName, .-vTraceSetQueueName
 279              		.section	.text.vTraceSetSemaphoreName,"ax",%progbits
 280              		.align	2
 281              		.global	vTraceSetSemaphoreName
 282              		.thumb
 283              		.thumb_func
 284              		.type	vTraceSetSemaphoreName, %function
 285              	vTraceSetSemaphoreName:
 286              	.LFB118:
 428:source\bsw\TraceRecorder/trcKernelPort.c **** }
 429:source\bsw\TraceRecorder/trcKernelPort.c **** 
 430:source\bsw\TraceRecorder/trcKernelPort.c **** /*******************************************************************************
 431:source\bsw\TraceRecorder/trcKernelPort.c ****  * vTraceSetSemaphoreName(void* object, const char* name)
 432:source\bsw\TraceRecorder/trcKernelPort.c ****  *
 433:source\bsw\TraceRecorder/trcKernelPort.c ****  * Parameter object: pointer to the Semaphore that shall be named
 434:source\bsw\TraceRecorder/trcKernelPort.c ****  * Parameter name: the name to set (const string literal)
 435:source\bsw\TraceRecorder/trcKernelPort.c ****  *
 436:source\bsw\TraceRecorder/trcKernelPort.c ****  * Sets a name for Semaphore objects for display in Tracealyzer.
 437:source\bsw\TraceRecorder/trcKernelPort.c ****  ******************************************************************************/
 438:source\bsw\TraceRecorder/trcKernelPort.c **** void vTraceSetSemaphoreName(void* object, const char* name)
 439:source\bsw\TraceRecorder/trcKernelPort.c **** {
 287              		.loc 1 439 0
 288              		.cfi_startproc
 289              		@ args = 0, pretend = 0, frame = 0
 290              		@ frame_needed = 0, uses_anonymous_args = 0
 291              	.LVL23:
 292 0000 08B5     		push	{r3, lr}
 293              		.cfi_def_cfa_offset 8
 294              		.cfi_offset 3, -8
 295              		.cfi_offset 14, -4
 440:source\bsw\TraceRecorder/trcKernelPort.c **** 	vTraceStoreKernelObjectName(object, name);
 296              		.loc 1 440 0
 297 0002 FFF7FEFF 		bl	vTraceStoreKernelObjectName
 298              	.LVL24:
 299 0006 08BD     		pop	{r3, pc}
 300              		.cfi_endproc
 301              	.LFE118:
ARM GAS  C:\Users\DABBIR~1\AppData\Local\Temp\cc1W7g0B.s 			page 14


 302              		.size	vTraceSetSemaphoreName, .-vTraceSetSemaphoreName
 303              		.section	.text.vTraceSetMutexName,"ax",%progbits
 304              		.align	2
 305              		.global	vTraceSetMutexName
 306              		.thumb
 307              		.thumb_func
 308              		.type	vTraceSetMutexName, %function
 309              	vTraceSetMutexName:
 310              	.LFB119:
 441:source\bsw\TraceRecorder/trcKernelPort.c **** }
 442:source\bsw\TraceRecorder/trcKernelPort.c **** 
 443:source\bsw\TraceRecorder/trcKernelPort.c **** /*******************************************************************************
 444:source\bsw\TraceRecorder/trcKernelPort.c ****  * vTraceSetMutexName(void* object, const char* name)
 445:source\bsw\TraceRecorder/trcKernelPort.c ****  *
 446:source\bsw\TraceRecorder/trcKernelPort.c ****  * Parameter object: pointer to the Mutex that shall be named
 447:source\bsw\TraceRecorder/trcKernelPort.c ****  * Parameter name: the name to set (const string literal)
 448:source\bsw\TraceRecorder/trcKernelPort.c ****  *
 449:source\bsw\TraceRecorder/trcKernelPort.c ****  * Sets a name for Mutex objects for display in Tracealyzer.
 450:source\bsw\TraceRecorder/trcKernelPort.c ****  ******************************************************************************/
 451:source\bsw\TraceRecorder/trcKernelPort.c **** void vTraceSetMutexName(void* object, const char* name)
 452:source\bsw\TraceRecorder/trcKernelPort.c **** {
 311              		.loc 1 452 0
 312              		.cfi_startproc
 313              		@ args = 0, pretend = 0, frame = 0
 314              		@ frame_needed = 0, uses_anonymous_args = 0
 315              	.LVL25:
 316 0000 08B5     		push	{r3, lr}
 317              		.cfi_def_cfa_offset 8
 318              		.cfi_offset 3, -8
 319              		.cfi_offset 14, -4
 453:source\bsw\TraceRecorder/trcKernelPort.c **** 	vTraceStoreKernelObjectName(object, name);
 320              		.loc 1 453 0
 321 0002 FFF7FEFF 		bl	vTraceStoreKernelObjectName
 322              	.LVL26:
 323 0006 08BD     		pop	{r3, pc}
 324              		.cfi_endproc
 325              	.LFE119:
 326              		.size	vTraceSetMutexName, .-vTraceSetMutexName
 327              		.section	.text.prvTraceIsSchedulerSuspended,"ax",%progbits
 328              		.align	2
 329              		.global	prvTraceIsSchedulerSuspended
 330              		.thumb
 331              		.thumb_func
 332              		.type	prvTraceIsSchedulerSuspended, %function
 333              	prvTraceIsSchedulerSuspended:
 334              	.LFB120:
 454:source\bsw\TraceRecorder/trcKernelPort.c **** }
 455:source\bsw\TraceRecorder/trcKernelPort.c **** 
 456:source\bsw\TraceRecorder/trcKernelPort.c **** #if (TRC_CFG_INCLUDE_EVENT_GROUP_EVENTS == 1 && TRC_CFG_FREERTOS_VERSION >= TRC_FREERTOS_VERSION_8_
 457:source\bsw\TraceRecorder/trcKernelPort.c **** /*******************************************************************************
 458:source\bsw\TraceRecorder/trcKernelPort.c **** * vTraceSetEventGroupName(void* object, const char* name)
 459:source\bsw\TraceRecorder/trcKernelPort.c **** *
 460:source\bsw\TraceRecorder/trcKernelPort.c **** * Parameter object: pointer to the vTraceSetEventGroupName that shall be named
 461:source\bsw\TraceRecorder/trcKernelPort.c **** * Parameter name: the name to set (const string literal)
 462:source\bsw\TraceRecorder/trcKernelPort.c **** *
 463:source\bsw\TraceRecorder/trcKernelPort.c **** * Sets a name for EventGroup objects for display in Tracealyzer.
 464:source\bsw\TraceRecorder/trcKernelPort.c **** ******************************************************************************/
ARM GAS  C:\Users\DABBIR~1\AppData\Local\Temp\cc1W7g0B.s 			page 15


 465:source\bsw\TraceRecorder/trcKernelPort.c **** void vTraceSetEventGroupName(void* object, const char* name)
 466:source\bsw\TraceRecorder/trcKernelPort.c **** {
 467:source\bsw\TraceRecorder/trcKernelPort.c **** 	vTraceStoreKernelObjectName(object, name);
 468:source\bsw\TraceRecorder/trcKernelPort.c **** }
 469:source\bsw\TraceRecorder/trcKernelPort.c **** #endif /* (TRC_CFG_INCLUDE_EVENT_GROUP_EVENTS == 1 && TRC_CFG_FREERTOS_VERSION >= TRC_FREERTOS_VERS
 470:source\bsw\TraceRecorder/trcKernelPort.c **** 
 471:source\bsw\TraceRecorder/trcKernelPort.c **** #if (TRC_CFG_INCLUDE_STREAM_BUFFER_EVENTS == 1 && TRC_CFG_FREERTOS_VERSION >= TRC_FREERTOS_VERSION_
 472:source\bsw\TraceRecorder/trcKernelPort.c **** /*******************************************************************************
 473:source\bsw\TraceRecorder/trcKernelPort.c **** * vTraceSetStreamBufferName(void* object, const char* name)
 474:source\bsw\TraceRecorder/trcKernelPort.c **** *
 475:source\bsw\TraceRecorder/trcKernelPort.c **** * Parameter object: pointer to the StreamBuffer that shall be named
 476:source\bsw\TraceRecorder/trcKernelPort.c **** * Parameter name: the name to set (const string literal)
 477:source\bsw\TraceRecorder/trcKernelPort.c **** *
 478:source\bsw\TraceRecorder/trcKernelPort.c **** * Sets a name for StreamBuffer objects for display in Tracealyzer.
 479:source\bsw\TraceRecorder/trcKernelPort.c **** ******************************************************************************/
 480:source\bsw\TraceRecorder/trcKernelPort.c **** void vTraceSetStreamBufferName(void* object, const char* name)
 481:source\bsw\TraceRecorder/trcKernelPort.c **** {
 482:source\bsw\TraceRecorder/trcKernelPort.c **** 	vTraceStoreKernelObjectName(object, name);
 483:source\bsw\TraceRecorder/trcKernelPort.c **** }
 484:source\bsw\TraceRecorder/trcKernelPort.c **** 
 485:source\bsw\TraceRecorder/trcKernelPort.c **** /*******************************************************************************
 486:source\bsw\TraceRecorder/trcKernelPort.c **** * vTraceSetMessageBufferName(void* object, const char* name)
 487:source\bsw\TraceRecorder/trcKernelPort.c **** *
 488:source\bsw\TraceRecorder/trcKernelPort.c **** * Parameter object: pointer to the MessageBuffer that shall be named
 489:source\bsw\TraceRecorder/trcKernelPort.c **** * Parameter name: the name to set (const string literal)
 490:source\bsw\TraceRecorder/trcKernelPort.c **** *
 491:source\bsw\TraceRecorder/trcKernelPort.c **** * Sets a name for MessageBuffer objects for display in Tracealyzer.
 492:source\bsw\TraceRecorder/trcKernelPort.c **** ******************************************************************************/
 493:source\bsw\TraceRecorder/trcKernelPort.c **** void vTraceSetMessageBufferName(void* object, const char* name)
 494:source\bsw\TraceRecorder/trcKernelPort.c **** {
 495:source\bsw\TraceRecorder/trcKernelPort.c **** 	vTraceStoreKernelObjectName(object, name);
 496:source\bsw\TraceRecorder/trcKernelPort.c **** }
 497:source\bsw\TraceRecorder/trcKernelPort.c **** #endif /* (TRC_CFG_INCLUDE_STREAM_BUFFER_EVENTS == 1 && TRC_CFG_FREERTOS_VERSION >= TRC_FREERTOS_VE
 498:source\bsw\TraceRecorder/trcKernelPort.c **** 
 499:source\bsw\TraceRecorder/trcKernelPort.c **** #endif /* (TRC_CFG_SCHEDULING_ONLY == 0) */
 500:source\bsw\TraceRecorder/trcKernelPort.c **** 
 501:source\bsw\TraceRecorder/trcKernelPort.c **** /*******************************************************************************
 502:source\bsw\TraceRecorder/trcKernelPort.c ****  * prvTraceIsSchedulerSuspended
 503:source\bsw\TraceRecorder/trcKernelPort.c ****  *
 504:source\bsw\TraceRecorder/trcKernelPort.c ****  * Returns true if the RTOS scheduler currently is disabled, thus preventing any
 505:source\bsw\TraceRecorder/trcKernelPort.c ****  * task-switches from occurring. Only called from vTraceStoreISREnd.
 506:source\bsw\TraceRecorder/trcKernelPort.c ****  ******************************************************************************/
 507:source\bsw\TraceRecorder/trcKernelPort.c **** unsigned char prvTraceIsSchedulerSuspended(void)
 508:source\bsw\TraceRecorder/trcKernelPort.c **** {
 335              		.loc 1 508 0
 336              		.cfi_startproc
 337              		@ args = 0, pretend = 0, frame = 0
 338              		@ frame_needed = 0, uses_anonymous_args = 0
 339              		@ link register save eliminated.
 509:source\bsw\TraceRecorder/trcKernelPort.c ****     /* Assumed to be available in FreeRTOS. According to the FreeRTOS docs, 
 510:source\bsw\TraceRecorder/trcKernelPort.c **** 	INCLUDE_xTaskGetSchedulerState or configUSE_TIMERS must be set to 1 in
 511:source\bsw\TraceRecorder/trcKernelPort.c **** 	FreeRTOSConfig.h for this function to be available. */
 512:source\bsw\TraceRecorder/trcKernelPort.c **** 
 513:source\bsw\TraceRecorder/trcKernelPort.c **** 	return 0;   
 514:source\bsw\TraceRecorder/trcKernelPort.c **** }  //ERIKA OS Changes,At the moment this function is not necessary as this is used only in interrup
 340              		.loc 1 514 0
 341 0000 0020     		movs	r0, #0
ARM GAS  C:\Users\DABBIR~1\AppData\Local\Temp\cc1W7g0B.s 			page 16


 342 0002 7047     		bx	lr
 343              		.cfi_endproc
 344              	.LFE120:
 345              		.size	prvTraceIsSchedulerSuspended, .-prvTraceIsSchedulerSuspended
 346              		.section	.text.prvCheckRecorderStatus,"ax",%progbits
 347              		.align	2
 348              		.global	prvCheckRecorderStatus
 349              		.thumb
 350              		.thumb_func
 351              		.type	prvCheckRecorderStatus, %function
 352              	prvCheckRecorderStatus:
 353              	.LFB121:
 515:source\bsw\TraceRecorder/trcKernelPort.c **** 
 516:source\bsw\TraceRecorder/trcKernelPort.c **** 
 517:source\bsw\TraceRecorder/trcKernelPort.c **** /*******************************************************************************
 518:source\bsw\TraceRecorder/trcKernelPort.c ****  * prvCheckRecorderStatus
 519:source\bsw\TraceRecorder/trcKernelPort.c ****  *
 520:source\bsw\TraceRecorder/trcKernelPort.c ****  * Called by TzCtrl task periodically (every 100 ms - seems reasonable).
 521:source\bsw\TraceRecorder/trcKernelPort.c ****  * Checks a number of diagnostic variables and give warnings as user events,
 522:source\bsw\TraceRecorder/trcKernelPort.c ****  * in most cases including a suggested solution.
 523:source\bsw\TraceRecorder/trcKernelPort.c ****  ******************************************************************************/
 524:source\bsw\TraceRecorder/trcKernelPort.c **** void prvCheckRecorderStatus(void)//ERIKA_Changes_Tx Updated-removed static
 525:source\bsw\TraceRecorder/trcKernelPort.c **** {
 354              		.loc 1 525 0
 355              		.cfi_startproc
 356              		@ args = 0, pretend = 0, frame = 0
 357              		@ frame_needed = 0, uses_anonymous_args = 0
 358 0000 08B5     		push	{r3, lr}
 359              		.cfi_def_cfa_offset 8
 360              		.cfi_offset 3, -8
 361              		.cfi_offset 14, -4
 526:source\bsw\TraceRecorder/trcKernelPort.c **** 	if (NoRoomForSymbol > NoRoomForSymbol_last)
 362              		.loc 1 526 0
 363 0002 214B     		ldr	r3, .L35
 364 0004 1A68     		ldr	r2, [r3]
 365 0006 214B     		ldr	r3, .L35+4
 366 0008 1B68     		ldr	r3, [r3]
 367 000a 9A42     		cmp	r2, r3
 368 000c 09D9     		bls	.L26
 527:source\bsw\TraceRecorder/trcKernelPort.c **** 	{
 528:source\bsw\TraceRecorder/trcKernelPort.c **** 		if (NoRoomForSymbol > 0)
 369              		.loc 1 528 0
 370 000e 1E4B     		ldr	r3, .L35
 371 0010 1B68     		ldr	r3, [r3]
 372 0012 13B1     		cbz	r3, .L27
 529:source\bsw\TraceRecorder/trcKernelPort.c **** 		{
 530:source\bsw\TraceRecorder/trcKernelPort.c **** 			prvTraceWarning(PSF_WARNING_SYMBOL_TABLE_SLOTS);
 373              		.loc 1 530 0
 374 0014 6520     		movs	r0, #101
 375 0016 FFF7FEFF 		bl	prvTraceWarning
 376              	.LVL27:
 377              	.L27:
 531:source\bsw\TraceRecorder/trcKernelPort.c **** 		}
 532:source\bsw\TraceRecorder/trcKernelPort.c **** 		NoRoomForSymbol_last = NoRoomForSymbol;
 378              		.loc 1 532 0
 379 001a 1B4B     		ldr	r3, .L35
 380 001c 1A68     		ldr	r2, [r3]
ARM GAS  C:\Users\DABBIR~1\AppData\Local\Temp\cc1W7g0B.s 			page 17


 381 001e 1B4B     		ldr	r3, .L35+4
 382 0020 1A60     		str	r2, [r3]
 383              	.L26:
 533:source\bsw\TraceRecorder/trcKernelPort.c **** 	}
 534:source\bsw\TraceRecorder/trcKernelPort.c **** 
 535:source\bsw\TraceRecorder/trcKernelPort.c **** 	if (NoRoomForObjectData > NoRoomForObjectData_last)
 384              		.loc 1 535 0
 385 0022 1B4B     		ldr	r3, .L35+8
 386 0024 1A68     		ldr	r2, [r3]
 387 0026 194B     		ldr	r3, .L35+4
 388 0028 5B68     		ldr	r3, [r3, #4]
 389 002a 9A42     		cmp	r2, r3
 390 002c 09D9     		bls	.L28
 536:source\bsw\TraceRecorder/trcKernelPort.c **** 	{
 537:source\bsw\TraceRecorder/trcKernelPort.c **** 		if (NoRoomForObjectData > 0)
 391              		.loc 1 537 0
 392 002e 184B     		ldr	r3, .L35+8
 393 0030 1B68     		ldr	r3, [r3]
 394 0032 13B1     		cbz	r3, .L29
 538:source\bsw\TraceRecorder/trcKernelPort.c **** 		{
 539:source\bsw\TraceRecorder/trcKernelPort.c **** 			prvTraceWarning(PSF_WARNING_OBJECT_DATA_SLOTS);
 395              		.loc 1 539 0
 396 0034 6720     		movs	r0, #103
 397 0036 FFF7FEFF 		bl	prvTraceWarning
 398              	.LVL28:
 399              	.L29:
 540:source\bsw\TraceRecorder/trcKernelPort.c **** 		}
 541:source\bsw\TraceRecorder/trcKernelPort.c **** 		NoRoomForObjectData_last = NoRoomForObjectData;
 400              		.loc 1 541 0
 401 003a 154B     		ldr	r3, .L35+8
 402 003c 1A68     		ldr	r2, [r3]
 403 003e 134B     		ldr	r3, .L35+4
 404 0040 5A60     		str	r2, [r3, #4]
 405              	.L28:
 542:source\bsw\TraceRecorder/trcKernelPort.c **** 	}
 543:source\bsw\TraceRecorder/trcKernelPort.c **** 
 544:source\bsw\TraceRecorder/trcKernelPort.c **** 	if (LongestSymbolName > LongestSymbolName_last)
 406              		.loc 1 544 0
 407 0042 144B     		ldr	r3, .L35+12
 408 0044 1A68     		ldr	r2, [r3]
 409 0046 114B     		ldr	r3, .L35+4
 410 0048 9B68     		ldr	r3, [r3, #8]
 411 004a 9A42     		cmp	r2, r3
 412 004c 0AD9     		bls	.L30
 545:source\bsw\TraceRecorder/trcKernelPort.c **** 	{
 546:source\bsw\TraceRecorder/trcKernelPort.c **** 		if (LongestSymbolName > (TRC_CFG_SYMBOL_MAX_LENGTH))
 413              		.loc 1 546 0
 414 004e 114B     		ldr	r3, .L35+12
 415 0050 1B68     		ldr	r3, [r3]
 416 0052 192B     		cmp	r3, #25
 417 0054 02D9     		bls	.L31
 547:source\bsw\TraceRecorder/trcKernelPort.c **** 		{
 548:source\bsw\TraceRecorder/trcKernelPort.c **** 			prvTraceWarning(PSF_WARNING_SYMBOL_MAX_LENGTH);
 418              		.loc 1 548 0
 419 0056 6620     		movs	r0, #102
 420 0058 FFF7FEFF 		bl	prvTraceWarning
 421              	.LVL29:
ARM GAS  C:\Users\DABBIR~1\AppData\Local\Temp\cc1W7g0B.s 			page 18


 422              	.L31:
 549:source\bsw\TraceRecorder/trcKernelPort.c **** 		}
 550:source\bsw\TraceRecorder/trcKernelPort.c **** 		LongestSymbolName_last = LongestSymbolName;
 423              		.loc 1 550 0
 424 005c 0D4B     		ldr	r3, .L35+12
 425 005e 1A68     		ldr	r2, [r3]
 426 0060 0A4B     		ldr	r3, .L35+4
 427 0062 9A60     		str	r2, [r3, #8]
 428              	.L30:
 551:source\bsw\TraceRecorder/trcKernelPort.c **** 	}
 552:source\bsw\TraceRecorder/trcKernelPort.c **** 
 553:source\bsw\TraceRecorder/trcKernelPort.c **** 	if (MaxBytesTruncated > MaxBytesTruncated_last)
 429              		.loc 1 553 0
 430 0064 0C4B     		ldr	r3, .L35+16
 431 0066 1A68     		ldr	r2, [r3]
 432 0068 084B     		ldr	r3, .L35+4
 433 006a DB68     		ldr	r3, [r3, #12]
 434 006c 9A42     		cmp	r2, r3
 435 006e 09D9     		bls	.L25
 554:source\bsw\TraceRecorder/trcKernelPort.c **** 	{
 555:source\bsw\TraceRecorder/trcKernelPort.c **** 		if (MaxBytesTruncated > 0)
 436              		.loc 1 555 0
 437 0070 094B     		ldr	r3, .L35+16
 438 0072 1B68     		ldr	r3, [r3]
 439 0074 13B1     		cbz	r3, .L33
 556:source\bsw\TraceRecorder/trcKernelPort.c **** 		{
 557:source\bsw\TraceRecorder/trcKernelPort.c **** 			prvTraceWarning(PSF_WARNING_STRING_TOO_LONG);
 440              		.loc 1 557 0
 441 0076 6820     		movs	r0, #104
 442 0078 FFF7FEFF 		bl	prvTraceWarning
 443              	.LVL30:
 444              	.L33:
 558:source\bsw\TraceRecorder/trcKernelPort.c **** 		}
 559:source\bsw\TraceRecorder/trcKernelPort.c **** 		MaxBytesTruncated_last = MaxBytesTruncated;
 445              		.loc 1 559 0
 446 007c 064B     		ldr	r3, .L35+16
 447 007e 1A68     		ldr	r2, [r3]
 448 0080 024B     		ldr	r3, .L35+4
 449 0082 DA60     		str	r2, [r3, #12]
 450              	.L25:
 451 0084 08BD     		pop	{r3, pc}
 452              	.L36:
 453 0086 00BF     		.align	2
 454              	.L35:
 455 0088 00000000 		.word	NoRoomForSymbol
 456 008c 00000000 		.word	.LANCHOR0
 457 0090 00000000 		.word	NoRoomForObjectData
 458 0094 00000000 		.word	LongestSymbolName
 459 0098 00000000 		.word	MaxBytesTruncated
 460              		.cfi_endproc
 461              	.LFE121:
 462              		.size	prvCheckRecorderStatus, .-prvCheckRecorderStatus
 463              		.section	.text.FuncTzCtrl,"ax",%progbits
 464              		.align	2
 465              		.global	FuncTzCtrl
 466              		.thumb
 467              		.thumb_func
ARM GAS  C:\Users\DABBIR~1\AppData\Local\Temp\cc1W7g0B.s 			page 19


 468              		.type	FuncTzCtrl, %function
 469              	FuncTzCtrl:
 470              	.LFB110:
 153:source\bsw\TraceRecorder/trcKernelPort.c ****     TracealyzerCommandType msg;
 471              		.loc 1 153 0
 472              		.cfi_startproc
 473              		@ args = 0, pretend = 0, frame = 16
 474              		@ frame_needed = 0, uses_anonymous_args = 0
 475 0000 00B5     		push	{lr}
 476              		.cfi_def_cfa_offset 4
 477              		.cfi_offset 14, -4
 478 0002 85B0     		sub	sp, sp, #20
 479              		.cfi_def_cfa_offset 24
 480              	.L39:
 160:source\bsw\TraceRecorder/trcKernelPort.c **** 			status = TRC_STREAM_PORT_READ_DATA(&msg, sizeof(TracealyzerCommandType), (int32_t*)&bytes);
 481              		.loc 1 160 0
 482 0004 04AA     		add	r2, sp, #16
 483 0006 0023     		movs	r3, #0
 484 0008 42F80C3D 		str	r3, [r2, #-12]!
 161:source\bsw\TraceRecorder/trcKernelPort.c **** 
 485              		.loc 1 161 0
 486 000c 0821     		movs	r1, #8
 487 000e 0DEB0100 		add	r0, sp, r1
 488 0012 FFF7FEFF 		bl	trcUARTReceive
 489              	.LVL31:
 163:source\bsw\TraceRecorder/trcKernelPort.c **** 			{
 490              		.loc 1 163 0
 491 0016 48B9     		cbnz	r0, .L38
 163:source\bsw\TraceRecorder/trcKernelPort.c **** 			{
 492              		.loc 1 163 0 is_stmt 0 discriminator 1
 493 0018 019B     		ldr	r3, [sp, #4]
 494 001a 082B     		cmp	r3, #8
 495 001c 06D1     		bne	.L38
 165:source\bsw\TraceRecorder/trcKernelPort.c **** 				{
 496              		.loc 1 165 0 is_stmt 1
 497 001e 02A8     		add	r0, sp, #8
 498              	.LVL32:
 499 0020 FFF7FEFF 		bl	prvIsValidCommand
 500              	.LVL33:
 501 0024 10B1     		cbz	r0, .L38
 167:source\bsw\TraceRecorder/trcKernelPort.c **** 				}
 502              		.loc 1 167 0
 503 0026 02A8     		add	r0, sp, #8
 504 0028 FFF7FEFF 		bl	prvProcessCommand
 505              	.LVL34:
 506              	.L38:
 171:source\bsw\TraceRecorder/trcKernelPort.c **** 			#if (TRC_STREAM_PORT_USE_INTERNAL_BUFFER == 1)
 507              		.loc 1 171 0
 508 002c 0023     		movs	r3, #0
 509 002e 0193     		str	r3, [sp, #4]
 174:source\bsw\TraceRecorder/trcKernelPort.c ****             #endif	
 510              		.loc 1 174 0
 511 0030 FFF7FEFF 		bl	prvPagedEventBufferTransfer
 512              	.LVL35:
 513 0034 0190     		str	r0, [sp, #4]
 177:source\bsw\TraceRecorder/trcKernelPort.c ****         prvCheckRecorderStatus();
 514              		.loc 1 177 0
ARM GAS  C:\Users\DABBIR~1\AppData\Local\Temp\cc1W7g0B.s 			page 20


 515 0036 0028     		cmp	r0, #0
 516 0038 E4D1     		bne	.L39
 178:source\bsw\TraceRecorder/trcKernelPort.c ****         TerminateTask();
 517              		.loc 1 178 0
 518 003a FFF7FEFF 		bl	prvCheckRecorderStatus
 519              	.LVL36:
 179:source\bsw\TraceRecorder/trcKernelPort.c **** } 
 520              		.loc 1 179 0
 521 003e FFF7FEFF 		bl	EE_oo_TerminateTask
 522              	.LVL37:
 180:source\bsw\TraceRecorder/trcKernelPort.c **** 
 523              		.loc 1 180 0
 524 0042 05B0     		add	sp, sp, #20
 525              		.cfi_def_cfa_offset 4
 526              		@ sp needed
 527 0044 5DF804FB 		ldr	pc, [sp], #4
 528              		.cfi_endproc
 529              	.LFE110:
 530              		.size	FuncTzCtrl, .-FuncTzCtrl
 531              		.comm	_TzTraceData,5000,4
 532              		.comm	trcWarningChannel,4,4
 533              		.section	.rodata.str1.4,"aMS",%progbits,1
 534              		.align	2
 535              	.LC0:
 536 0000 5761726E 		.ascii	"Warnings from Recorder\000"
 536      696E6773 
 536      2066726F 
 536      6D205265 
 536      636F7264 
 537              		.bss
 538              		.align	2
 539              		.set	.LANCHOR0,. + 0
 540              		.type	NoRoomForSymbol_last, %object
 541              		.size	NoRoomForSymbol_last, 4
 542              	NoRoomForSymbol_last:
 543 0000 00000000 		.space	4
 544              		.type	NoRoomForObjectData_last, %object
 545              		.size	NoRoomForObjectData_last, 4
 546              	NoRoomForObjectData_last:
 547 0004 00000000 		.space	4
 548              		.type	LongestSymbolName_last, %object
 549              		.size	LongestSymbolName_last, 4
 550              	LongestSymbolName_last:
 551 0008 00000000 		.space	4
 552              		.type	MaxBytesTruncated_last, %object
 553              		.size	MaxBytesTruncated_last, 4
 554              	MaxBytesTruncated_last:
 555 000c 00000000 		.space	4
 556              		.text
 557              	.Letext0:
 558              		.file 2 "c:\\program files (x86)\\cypress\\psoc creator\\4.4\\psoc creator\\import\\gnu\\arm\\5.4.
 559              		.file 3 "Generated_Source\\PSoC5/ErikaOS_1_common_ee_types.inc"
 560              		.file 4 "Generated_Source\\PSoC5/ErikaOS_1_cortex_mx_ee_cpu.inc"
 561              		.file 5 "Generated_Source\\PSoC5/ErikaOS_1_ee_oo_common.inc"
 562              		.file 6 "c:\\program files (x86)\\cypress\\psoc creator\\4.4\\psoc creator\\import\\gnu\\arm\\5.4.
 563              		.file 7 ".\\source\\bsw\\TraceRecorder\\include/trcRecorder.h"
 564              		.file 8 "Generated_Source\\PSoC5/ErikaOS_1_ee_oo_intfunc.inc"
ARM GAS  C:\Users\DABBIR~1\AppData\Local\Temp\cc1W7g0B.s 			page 21


 565              		.file 9 "Generated_Source\\PSoC5/ErikaOS_1_cortex_mx_ee_context.inc"
 566              		.file 10 "Generated_Source\\PSoC5/ErikaOS_1_common_ee_primitives.inc"
 567              		.file 11 "Generated_Source\\PSoC5/core_cm3.h"
 568              		.file 12 "Generated_Source\\PSoC5/ErikaOS_1_ee_oo_kernel.inc"
 569              		.file 13 ".\\source\\bsw\\TraceRecorder\\streamport/trcStreamingPort.h"
 570              		.file 14 ".\\source\\bsw\\TraceRecorder\\include/trcHardwarePort.h"
 571              		.file 15 ".\\source\\bsw\\TraceRecorder\\include/trcKernelPort.h"