ARM GAS  C:\Users\DABBIR~1\AppData\Local\Temp\ccvPYiMk.s 			page 1


   1              		.syntax unified
   2              		.cpu cortex-m3
   3              		.fpu softvfp
   4              		.eabi_attribute 20, 1
   5              		.eabi_attribute 21, 1
   6              		.eabi_attribute 23, 3
   7              		.eabi_attribute 24, 1
   8              		.eabi_attribute 25, 1
   9              		.eabi_attribute 26, 1
  10              		.eabi_attribute 30, 1
  11              		.eabi_attribute 34, 1
  12              		.eabi_attribute 18, 4
  13              		.thumb
  14              		.syntax unified
  15              		.file	"circularRingbuffer.c"
  16              		.text
  17              	.Ltext0:
  18              		.cfi_sections	.debug_frame
  19              		.section	.text.circularRingbuffer_init,"ax",%progbits
  20              		.align	2
  21              		.global	circularRingbuffer_init
  22              		.thumb
  23              		.thumb_func
  24              		.type	circularRingbuffer_init, %function
  25              	circularRingbuffer_init:
  26              	.LFB102:
  27              		.file 1 "circularRingbuffer.c"
   1:circularRingbuffer.c **** /**
   2:circularRingbuffer.c **** * \file <filename>
   3:circularRingbuffer.c **** * \author <author-name>
   4:circularRingbuffer.c **** * \date <date>
   5:circularRingbuffer.c **** *
   6:circularRingbuffer.c **** * \brief <Symbolic File name>
   7:circularRingbuffer.c **** *
   8:circularRingbuffer.c **** * \copyright Copyright ©2016
   9:circularRingbuffer.c **** * Department of electrical engineering and information technology, Hochschule Darmstadt - Universit
  10:circularRingbuffer.c **** * Permission to use, copy, modify, and distribute this software and its documentation for education
  11:circularRingbuffer.c **** * (unless permitted by h_da) and official h_da projects, is hereby granted for enrolled students of
  12:circularRingbuffer.c **** * this paragraph and the following paragraph appear in all copies, modifications, and distributions
  13:circularRingbuffer.c **** * Contact Prof.Dr.-Ing. Peter Fromm, peter.fromm@h-da.de, Birkenweg 8 64295 Darmstadt - GERMANY for
  14:circularRingbuffer.c **** *
  15:circularRingbuffer.c **** * \warning This software is a PROTOTYPE version and is not designed or intended for use in producti
  16:circularRingbuffer.c **** * The user represents and warrants that it will NOT use or redistribute the Software for such purpo
  17:circularRingbuffer.c **** * This prototype is for research purposes only. This software is provided "AS IS," without a warran
  18:circularRingbuffer.c **** */
  19:circularRingbuffer.c **** 
  20:circularRingbuffer.c **** /*****************************************************************************/
  21:circularRingbuffer.c **** /* Include files                                                             */
  22:circularRingbuffer.c **** /*****************************************************************************/
  23:circularRingbuffer.c **** #include "circularRingbuffer.h"
  24:circularRingbuffer.c **** 
  25:circularRingbuffer.c **** 
  26:circularRingbuffer.c **** RC_t circularRingbuffer_init(circularRingbuffer_t* ringbuffer, uint16_t size){
  28              		.loc 1 26 0
  29              		.cfi_startproc
  30              		@ args = 0, pretend = 0, frame = 0
  31              		@ frame_needed = 0, uses_anonymous_args = 0
ARM GAS  C:\Users\DABBIR~1\AppData\Local\Temp\ccvPYiMk.s 			page 2


  32              	.LVL0:
  27:circularRingbuffer.c ****     // Initiliaze with 0.
  28:circularRingbuffer.c ****     ringbuffer->read_idx = 0; 
  33              		.loc 1 28 0
  34 0000 0023     		movs	r3, #0
  35 0002 4380     		strh	r3, [r0, #2]	@ movhi
  29:circularRingbuffer.c ****     ringbuffer->write_idx = 0; 
  36              		.loc 1 29 0
  37 0004 8380     		strh	r3, [r0, #4]	@ movhi
  30:circularRingbuffer.c ****     ringbuffer->filllevel = 0;
  38              		.loc 1 30 0
  39 0006 C380     		strh	r3, [r0, #6]	@ movhi
  31:circularRingbuffer.c ****     
  32:circularRingbuffer.c ****     if(size == 0){
  40              		.loc 1 32 0
  41 0008 89B1     		cbz	r1, .L5
  26:circularRingbuffer.c ****     // Initiliaze with 0.
  42              		.loc 1 26 0
  43 000a 10B5     		push	{r4, lr}
  44              		.cfi_def_cfa_offset 8
  45              		.cfi_offset 4, -8
  46              		.cfi_offset 14, -4
  47 000c 0446     		mov	r4, r0
  48 000e 0846     		mov	r0, r1
  49              	.LVL1:
  33:circularRingbuffer.c ****         return RC_ERROR_ZERO; 
  34:circularRingbuffer.c ****     }
  35:circularRingbuffer.c ****     
  36:circularRingbuffer.c ****     ringbuffer->size = size;
  50              		.loc 1 36 0
  51 0010 2180     		strh	r1, [r4]	@ movhi
  37:circularRingbuffer.c ****     
  38:circularRingbuffer.c ****     // allocate memory
  39:circularRingbuffer.c ****     ringbuffer->data = (uint8_t*)malloc(size * sizeof(uint8_t));
  52              		.loc 1 39 0
  53 0012 FFF7FEFF 		bl	malloc
  54              	.LVL2:
  55 0016 A060     		str	r0, [r4, #8]
  56              	.LVL3:
  57              	.LBB2:
  40:circularRingbuffer.c ****     
  41:circularRingbuffer.c ****     // fill ringbuffer with default character
  42:circularRingbuffer.c ****     for(int i=0; i<(ringbuffer->size); i++){
  58              		.loc 1 42 0
  59 0018 0023     		movs	r3, #0
  60 001a 03E0     		b	.L3
  61              	.LVL4:
  62              	.L4:
  43:circularRingbuffer.c ****         ringbuffer->data[i] = ' '; 
  63              		.loc 1 43 0 discriminator 3
  64 001c A268     		ldr	r2, [r4, #8]
  65 001e 2021     		movs	r1, #32
  66 0020 D154     		strb	r1, [r2, r3]
  42:circularRingbuffer.c ****         ringbuffer->data[i] = ' '; 
  67              		.loc 1 42 0 discriminator 3
  68 0022 0133     		adds	r3, r3, #1
  69              	.LVL5:
ARM GAS  C:\Users\DABBIR~1\AppData\Local\Temp\ccvPYiMk.s 			page 3


  70              	.L3:
  42:circularRingbuffer.c ****         ringbuffer->data[i] = ' '; 
  71              		.loc 1 42 0 is_stmt 0 discriminator 1
  72 0024 2288     		ldrh	r2, [r4]
  73 0026 9342     		cmp	r3, r2
  74 0028 F8DB     		blt	.L4
  75              	.LBE2:
  44:circularRingbuffer.c ****     }
  45:circularRingbuffer.c ****     
  46:circularRingbuffer.c ****     return RC_SUCCESS; 
  76              		.loc 1 46 0 is_stmt 1
  77 002a 0020     		movs	r0, #0
  78              	.LBB3:
  79 002c 10BD     		pop	{r4, pc}
  80              	.LVL6:
  81              	.L5:
  82              		.cfi_def_cfa_offset 0
  83              		.cfi_restore 4
  84              		.cfi_restore 14
  85              	.LBE3:
  33:circularRingbuffer.c ****     }
  86              		.loc 1 33 0
  87 002e 6FF00200 		mvn	r0, #2
  88              	.LVL7:
  89 0032 7047     		bx	lr
  90              		.cfi_endproc
  91              	.LFE102:
  92              		.size	circularRingbuffer_init, .-circularRingbuffer_init
  93              		.section	.text.circularRingbuffer_read,"ax",%progbits
  94              		.align	2
  95              		.global	circularRingbuffer_read
  96              		.thumb
  97              		.thumb_func
  98              		.type	circularRingbuffer_read, %function
  99              	circularRingbuffer_read:
 100              	.LFB103:
  47:circularRingbuffer.c **** }
  48:circularRingbuffer.c **** 
  49:circularRingbuffer.c **** 
  50:circularRingbuffer.c **** RC_t circularRingbuffer_read(circularRingbuffer_t* ringbuffer, uint8_t* data){
 101              		.loc 1 50 0
 102              		.cfi_startproc
 103              		@ args = 0, pretend = 0, frame = 0
 104              		@ frame_needed = 0, uses_anonymous_args = 0
 105              		@ link register save eliminated.
 106              	.LVL8:
  51:circularRingbuffer.c ****     // Read from the ringbuffer. 
  52:circularRingbuffer.c ****     *data = ringbuffer->data[ringbuffer->read_idx]; 
 107              		.loc 1 52 0
 108 0000 8268     		ldr	r2, [r0, #8]
 109 0002 4388     		ldrh	r3, [r0, #2]
 110 0004 D35C     		ldrb	r3, [r2, r3]	@ zero_extendqisi2
 111 0006 0B70     		strb	r3, [r1]
  53:circularRingbuffer.c ****     
  54:circularRingbuffer.c ****     // Increment read index
  55:circularRingbuffer.c ****     ringbuffer->read_idx = ringbuffer->read_idx + 1;
 112              		.loc 1 55 0
ARM GAS  C:\Users\DABBIR~1\AppData\Local\Temp\ccvPYiMk.s 			page 4


 113 0008 4388     		ldrh	r3, [r0, #2]
 114 000a 0133     		adds	r3, r3, #1
 115 000c 9BB2     		uxth	r3, r3
  56:circularRingbuffer.c ****     ringbuffer->read_idx %= ringbuffer->size;
 116              		.loc 1 56 0
 117 000e 0188     		ldrh	r1, [r0]
 118              	.LVL9:
 119 0010 B3FBF1F2 		udiv	r2, r3, r1
 120 0014 01FB1233 		mls	r3, r1, r2, r3
 121 0018 4380     		strh	r3, [r0, #2]	@ movhi
  57:circularRingbuffer.c ****     
  58:circularRingbuffer.c ****     // Decrease filllevel
  59:circularRingbuffer.c ****     ringbuffer->filllevel= ringbuffer->filllevel - 1; 
 122              		.loc 1 59 0
 123 001a C388     		ldrh	r3, [r0, #6]
 124 001c 013B     		subs	r3, r3, #1
 125 001e C380     		strh	r3, [r0, #6]	@ movhi
  60:circularRingbuffer.c ****     
  61:circularRingbuffer.c ****     return RC_SUCCESS; 
  62:circularRingbuffer.c **** }
 126              		.loc 1 62 0
 127 0020 0020     		movs	r0, #0
 128              	.LVL10:
 129 0022 7047     		bx	lr
 130              		.cfi_endproc
 131              	.LFE103:
 132              		.size	circularRingbuffer_read, .-circularRingbuffer_read
 133              		.section	.text.circularRingbuffer_write,"ax",%progbits
 134              		.align	2
 135              		.global	circularRingbuffer_write
 136              		.thumb
 137              		.thumb_func
 138              		.type	circularRingbuffer_write, %function
 139              	circularRingbuffer_write:
 140              	.LFB104:
  63:circularRingbuffer.c **** 
  64:circularRingbuffer.c **** 
  65:circularRingbuffer.c **** RC_t circularRingbuffer_write(circularRingbuffer_t* ringbuffer, uint8_t data){
 141              		.loc 1 65 0
 142              		.cfi_startproc
 143              		@ args = 0, pretend = 0, frame = 0
 144              		@ frame_needed = 0, uses_anonymous_args = 0
 145              		@ link register save eliminated.
 146              	.LVL11:
  66:circularRingbuffer.c ****     // Read from the ringbuffer
  67:circularRingbuffer.c ****     ringbuffer->data[ringbuffer->write_idx] = data; 
 147              		.loc 1 67 0
 148 0000 8268     		ldr	r2, [r0, #8]
 149 0002 8388     		ldrh	r3, [r0, #4]
 150 0004 D154     		strb	r1, [r2, r3]
  68:circularRingbuffer.c ****     
  69:circularRingbuffer.c ****     // Inrement write index
  70:circularRingbuffer.c ****     ringbuffer->write_idx = ringbuffer ->write_idx + 1;
 151              		.loc 1 70 0
 152 0006 8388     		ldrh	r3, [r0, #4]
 153 0008 0133     		adds	r3, r3, #1
 154 000a 9BB2     		uxth	r3, r3
ARM GAS  C:\Users\DABBIR~1\AppData\Local\Temp\ccvPYiMk.s 			page 5


  71:circularRingbuffer.c ****     ringbuffer->write_idx %= ringbuffer->size;
 155              		.loc 1 71 0
 156 000c 0188     		ldrh	r1, [r0]
 157              	.LVL12:
 158 000e B3FBF1F2 		udiv	r2, r3, r1
 159 0012 01FB1233 		mls	r3, r1, r2, r3
 160 0016 8380     		strh	r3, [r0, #4]	@ movhi
  72:circularRingbuffer.c ****     
  73:circularRingbuffer.c ****     // Increase filllevel. 
  74:circularRingbuffer.c ****     ringbuffer->filllevel = ringbuffer->filllevel + 1; 
 161              		.loc 1 74 0
 162 0018 C388     		ldrh	r3, [r0, #6]
 163 001a 0133     		adds	r3, r3, #1
 164 001c C380     		strh	r3, [r0, #6]	@ movhi
  75:circularRingbuffer.c ****     
  76:circularRingbuffer.c ****     return RC_SUCCESS; 
  77:circularRingbuffer.c **** }
 165              		.loc 1 77 0
 166 001e 0020     		movs	r0, #0
 167              	.LVL13:
 168 0020 7047     		bx	lr
 169              		.cfi_endproc
 170              	.LFE104:
 171              		.size	circularRingbuffer_write, .-circularRingbuffer_write
 172 0022 00BF     		.section	.text.circularRingbuffer_clear,"ax",%progbits
 173              		.align	2
 174              		.global	circularRingbuffer_clear
 175              		.thumb
 176              		.thumb_func
 177              		.type	circularRingbuffer_clear, %function
 178              	circularRingbuffer_clear:
 179              	.LFB105:
  78:circularRingbuffer.c **** 
  79:circularRingbuffer.c **** 
  80:circularRingbuffer.c **** RC_t circularRingbuffer_clear(circularRingbuffer_t* ringbuffer){
 180              		.loc 1 80 0
 181              		.cfi_startproc
 182              		@ args = 0, pretend = 0, frame = 0
 183              		@ frame_needed = 0, uses_anonymous_args = 0
 184              		@ link register save eliminated.
 185              	.LVL14:
 186              	.LBB4:
  81:circularRingbuffer.c ****     // Fill the ringbuffer with default values
  82:circularRingbuffer.c ****     for(int i = 0; i<(ringbuffer->size); i++){
 187              		.loc 1 82 0
 188 0000 0023     		movs	r3, #0
 189 0002 03E0     		b	.L11
 190              	.LVL15:
 191              	.L12:
  83:circularRingbuffer.c ****         ringbuffer->data[i] = 0x00; 
 192              		.loc 1 83 0 discriminator 3
 193 0004 8268     		ldr	r2, [r0, #8]
 194 0006 0021     		movs	r1, #0
 195 0008 D154     		strb	r1, [r2, r3]
  82:circularRingbuffer.c ****         ringbuffer->data[i] = 0x00; 
 196              		.loc 1 82 0 discriminator 3
 197 000a 0133     		adds	r3, r3, #1
ARM GAS  C:\Users\DABBIR~1\AppData\Local\Temp\ccvPYiMk.s 			page 6


 198              	.LVL16:
 199              	.L11:
  82:circularRingbuffer.c ****         ringbuffer->data[i] = 0x00; 
 200              		.loc 1 82 0 is_stmt 0 discriminator 1
 201 000c 0288     		ldrh	r2, [r0]
 202 000e 9342     		cmp	r3, r2
 203 0010 F8DB     		blt	.L12
 204              	.LBE4:
  84:circularRingbuffer.c ****     }
  85:circularRingbuffer.c ****     
  86:circularRingbuffer.c ****     return RC_SUCCESS; 
  87:circularRingbuffer.c **** }
 205              		.loc 1 87 0 is_stmt 1
 206 0012 0020     		movs	r0, #0
 207              	.LVL17:
 208 0014 7047     		bx	lr
 209              		.cfi_endproc
 210              	.LFE105:
 211              		.size	circularRingbuffer_clear, .-circularRingbuffer_clear
 212 0016 00BF     		.section	.text.circularRingbuffer_UART_print,"ax",%progbits
 213              		.align	2
 214              		.global	circularRingbuffer_UART_print
 215              		.thumb
 216              		.thumb_func
 217              		.type	circularRingbuffer_UART_print, %function
 218              	circularRingbuffer_UART_print:
 219              	.LFB106:
  88:circularRingbuffer.c **** 
  89:circularRingbuffer.c **** RC_t circularRingbuffer_UART_print(circularRingbuffer_t* ringbuffer){
 220              		.loc 1 89 0
 221              		.cfi_startproc
 222              		@ args = 0, pretend = 0, frame = 0
 223              		@ frame_needed = 0, uses_anonymous_args = 0
 224              	.LVL18:
 225 0000 70B5     		push	{r4, r5, r6, lr}
 226              		.cfi_def_cfa_offset 16
 227              		.cfi_offset 4, -16
 228              		.cfi_offset 5, -12
 229              		.cfi_offset 6, -8
 230              		.cfi_offset 14, -4
 231 0002 0546     		mov	r5, r0
  90:circularRingbuffer.c ****     // Get filllevel
  91:circularRingbuffer.c ****     uint8_t amountOfData = ringbuffer->filllevel; 
 232              		.loc 1 91 0
 233 0004 8679     		ldrb	r6, [r0, #6]	@ zero_extendqisi2
 234              	.LVL19:
 235              	.LBB5:
  92:circularRingbuffer.c ****     
  93:circularRingbuffer.c ****     // Print the elements of the ringbuffer 
  94:circularRingbuffer.c ****     for(uint8_t i = 0; i<amountOfData; i++){
 236              		.loc 1 94 0
 237 0006 0024     		movs	r4, #0
 238 0008 07E0     		b	.L14
 239              	.LVL20:
 240              	.L15:
  95:circularRingbuffer.c ****         UART_LOG_PutChar(ringbuffer->data
 241              		.loc 1 95 0 discriminator 3
ARM GAS  C:\Users\DABBIR~1\AppData\Local\Temp\ccvPYiMk.s 			page 7


 242 000a AA68     		ldr	r2, [r5, #8]
  96:circularRingbuffer.c ****             [(ringbuffer->read_idx)+i]); 
 243              		.loc 1 96 0 discriminator 3
 244 000c 6B88     		ldrh	r3, [r5, #2]
 245 000e 2344     		add	r3, r3, r4
  95:circularRingbuffer.c ****         UART_LOG_PutChar(ringbuffer->data
 246              		.loc 1 95 0 discriminator 3
 247 0010 D05C     		ldrb	r0, [r2, r3]	@ zero_extendqisi2
 248 0012 FFF7FEFF 		bl	UART_LOG_PutChar
 249              	.LVL21:
  94:circularRingbuffer.c ****         UART_LOG_PutChar(ringbuffer->data
 250              		.loc 1 94 0 discriminator 3
 251 0016 0134     		adds	r4, r4, #1
 252              	.LVL22:
 253 0018 E4B2     		uxtb	r4, r4
 254              	.LVL23:
 255              	.L14:
  94:circularRingbuffer.c ****         UART_LOG_PutChar(ringbuffer->data
 256              		.loc 1 94 0 is_stmt 0 discriminator 1
 257 001a B442     		cmp	r4, r6
 258 001c F5D3     		bcc	.L15
 259              	.LBE5:
  97:circularRingbuffer.c ****     }
  98:circularRingbuffer.c ****     
  99:circularRingbuffer.c ****     return RC_SUCCESS; 
 100:circularRingbuffer.c **** }
 260              		.loc 1 100 0 is_stmt 1
 261 001e 0020     		movs	r0, #0
 262 0020 70BD     		pop	{r4, r5, r6, pc}
 263              		.cfi_endproc
 264              	.LFE106:
 265              		.size	circularRingbuffer_UART_print, .-circularRingbuffer_UART_print
 266 0022 00BF     		.section	.text.circularRingbuffer_checkForChar,"ax",%progbits
 267              		.align	2
 268              		.global	circularRingbuffer_checkForChar
 269              		.thumb
 270              		.thumb_func
 271              		.type	circularRingbuffer_checkForChar, %function
 272              	circularRingbuffer_checkForChar:
 273              	.LFB107:
 101:circularRingbuffer.c **** 
 102:circularRingbuffer.c **** RC_t circularRingbuffer_checkForChar(circularRingbuffer_t* ringbuffer, uint8_t searchValue, uint8_t
 274              		.loc 1 102 0
 275              		.cfi_startproc
 276              		@ args = 0, pretend = 0, frame = 0
 277              		@ frame_needed = 0, uses_anonymous_args = 0
 278              		@ link register save eliminated.
 279              	.LVL24:
 280 0000 70B4     		push	{r4, r5, r6}
 281              		.cfi_def_cfa_offset 12
 282              		.cfi_offset 4, -12
 283              		.cfi_offset 5, -8
 284              		.cfi_offset 6, -4
 103:circularRingbuffer.c ****     // Get filllevel and set found values to zero
 104:circularRingbuffer.c ****     uint8_t length = ringbuffer->filllevel; 
 285              		.loc 1 104 0
 286 0002 8679     		ldrb	r6, [r0, #6]	@ zero_extendqisi2
ARM GAS  C:\Users\DABBIR~1\AppData\Local\Temp\ccvPYiMk.s 			page 8


 287              	.LVL25:
 105:circularRingbuffer.c ****     *numberOfFoundValues = 0; 
 288              		.loc 1 105 0
 289 0004 0023     		movs	r3, #0
 290 0006 1370     		strb	r3, [r2]
 291              	.LVL26:
 292              	.LBB6:
 106:circularRingbuffer.c ****     
 107:circularRingbuffer.c ****     // Increment found values if char is found
 108:circularRingbuffer.c ****     for(uint8_t i = 0; i<length; i++){
 293              		.loc 1 108 0
 294 0008 0AE0     		b	.L18
 295              	.LVL27:
 296              	.L20:
 109:circularRingbuffer.c ****         if(ringbuffer->data
 297              		.loc 1 109 0
 298 000a 8568     		ldr	r5, [r0, #8]
 110:circularRingbuffer.c ****             [(ringbuffer->read_idx)+i] == searchValue){
 299              		.loc 1 110 0
 300 000c 4488     		ldrh	r4, [r0, #2]
 301 000e 1C44     		add	r4, r4, r3
 302 0010 2C5D     		ldrb	r4, [r5, r4]	@ zero_extendqisi2
 109:circularRingbuffer.c ****         if(ringbuffer->data
 303              		.loc 1 109 0
 304 0012 8C42     		cmp	r4, r1
 305 0014 02D1     		bne	.L19
 111:circularRingbuffer.c ****                 *numberOfFoundValues += 1; 
 306              		.loc 1 111 0
 307 0016 1478     		ldrb	r4, [r2]	@ zero_extendqisi2
 308 0018 0134     		adds	r4, r4, #1
 309 001a 1470     		strb	r4, [r2]
 310              	.L19:
 108:circularRingbuffer.c ****         if(ringbuffer->data
 311              		.loc 1 108 0 discriminator 2
 312 001c 0133     		adds	r3, r3, #1
 313              	.LVL28:
 314 001e DBB2     		uxtb	r3, r3
 315              	.LVL29:
 316              	.L18:
 108:circularRingbuffer.c ****         if(ringbuffer->data
 317              		.loc 1 108 0 is_stmt 0 discriminator 1
 318 0020 B342     		cmp	r3, r6
 319 0022 F2D3     		bcc	.L20
 320              	.LBE6:
 112:circularRingbuffer.c ****             }
 113:circularRingbuffer.c ****     }
 114:circularRingbuffer.c ****     return RC_SUCCESS; 
 115:circularRingbuffer.c **** }...
 321              		.loc 1 115 0 is_stmt 1
 322 0024 0020     		movs	r0, #0
 323              	.LVL30:
 324 0026 70BC     		pop	{r4, r5, r6}
 325              		.cfi_restore 6
 326              		.cfi_restore 5
 327              		.cfi_restore 4
 328              		.cfi_def_cfa_offset 0
 329              	.LVL31:
ARM GAS  C:\Users\DABBIR~1\AppData\Local\Temp\ccvPYiMk.s 			page 9


 330 0028 7047     		bx	lr
 331              		.cfi_endproc
 332              	.LFE107:
 333              		.size	circularRingbuffer_checkForChar, .-circularRingbuffer_checkForChar
 334 002a 00BF     		.text
 335              	.Letext0:
 336              		.file 2 "c:\\program files (x86)\\cypress\\psoc creator\\4.4\\psoc creator\\import\\gnu\\arm\\5.4.
 337              		.file 3 "c:\\program files (x86)\\cypress\\psoc creator\\4.4\\psoc creator\\import\\gnu\\arm\\5.4.
 338              		.file 4 "Generated_Source\\PSoC5/ErikaOS_1_common_ee_types.inc"
 339              		.file 5 "Generated_Source\\PSoC5/ErikaOS_1_cortex_mx_ee_cpu.inc"
 340              		.file 6 ".\\source\\bsw/global.h"
 341              		.file 7 "circularRingbuffer.h"
 342              		.file 8 "Generated_Source\\PSoC5/ErikaOS_1_ee_oo_intfunc.inc"
 343              		.file 9 "Generated_Source\\PSoC5/ErikaOS_1_cortex_mx_ee_context.inc"
 344              		.file 10 "Generated_Source\\PSoC5/ErikaOS_1_common_ee_primitives.inc"
 345              		.file 11 "Generated_Source\\PSoC5/core_cm3.h"
 346              		.file 12 "<built-in>"
 347              		.file 13 "Generated_Source\\PSoC5/UART_LOG.h"