ARM GAS  C:\Users\DABBIR~1\AppData\Local\Temp\cci4P5EK.s 			page 1


   1              		.syntax unified
   2              		.cpu cortex-m3
   3              		.fpu softvfp
   4              		.eabi_attribute 20, 1
   5              		.eabi_attribute 21, 1
   6              		.eabi_attribute 23, 3
   7              		.eabi_attribute 24, 1
   8              		.eabi_attribute 25, 1
   9              		.eabi_attribute 26, 1
  10              		.eabi_attribute 30, 1
  11              		.eabi_attribute 34, 1
  12              		.eabi_attribute 18, 4
  13              		.thumb
  14              		.syntax unified
  15              		.file	"drawer.c"
  16              		.text
  17              	.Ltext0:
  18              		.cfi_sections	.debug_frame
  19              		.section	.text.search,"ax",%progbits
  20              		.align	2
  21              		.global	search
  22              		.thumb
  23              		.thumb_func
  24              		.type	search, %function
  25              	search:
  26              	.LFB2:
  27              		.file 1 "drawer.c"
   1:drawer.c      **** /* ========================================
   2:drawer.c      ****  *
   3:drawer.c      ****  * Copyright YOUR COMPANY, THE YEAR
   4:drawer.c      ****  * All Rights Reserved
   5:drawer.c      ****  * UNPUBLISHED, LICENSED SOFTWARE.
   6:drawer.c      ****  *
   7:drawer.c      ****  * CONFIDENTIAL AND PROPRIETARY INFORMATION
   8:drawer.c      ****  * WHICH IS THE PROPERTY OF your company.
   9:drawer.c      ****  *
  10:drawer.c      ****  * ========================================
  11:drawer.c      **** */
  12:drawer.c      **** 
  13:drawer.c      **** #include "drawer.h"
  14:drawer.c      **** 
  15:drawer.c      **** // lookup-table which maps a string to the value
  16:drawer.c      **** item items[] = {
  17:drawer.c      ****         {"red", 0x001F}, {"blue", 0xF800}, {"green", 0x07E0}, {"white", 0xFFFF},
  18:drawer.c      ****         {"black", 0x0000}, {"magenta", 0xF81F}, {"yellow", 0x07FF}};
  19:drawer.c      **** 
  20:drawer.c      **** // number of items in the lookup table
  21:drawer.c      **** size_t num_items = sizeof(items) / sizeof(item);
  22:drawer.c      **** 
  23:drawer.c      **** // Prototype of function mapArrayToTFTColor
  24:drawer.c      **** void mapArrayToTFTColor(uint8_t* color, uint8_t length, TFT_color_t tft_color);
  25:drawer.c      **** 
  26:drawer.c      **** /**
  27:drawer.c      ****  * Translates a JSON tag into a command type for the TFT
  28:drawer.c      ****  * \param Drawer_t *const me            - [OUT] the next command
  29:drawer.c      ****  * \param Parser_t *const parser        - [IN/OUT] Parser object pointer
  30:drawer.c      ****  * \return RC_SUCCESS if a command was found, RC_ERROR_BUFFER_EMTPY if parsing has come to an end, 
ARM GAS  C:\Users\DABBIR~1\AppData\Local\Temp\cci4P5EK.s 			page 2


  31:drawer.c      ****  */
  32:drawer.c      **** RC_t DRAWER_getNextDrawCommand(Drawer_t *const me, Parser_t *const parser){
  33:drawer.c      ****     jsmntok_t crnt_token;
  34:drawer.c      ****     uint8_t coordinates[4] = {0,0,0,0};
  35:drawer.c      ****     TFT_color_t tft_color;
  36:drawer.c      ****     Drawer_commandType_t command;
  37:drawer.c      ****    
  38:drawer.c      ****     // Return if function call failes
  39:drawer.c      ****     if (PARSER_getNextToken(parser, &crnt_token) != 0){
  40:drawer.c      ****             return RC_ERROR;
  41:drawer.c      ****     }
  42:drawer.c      **** 
  43:drawer.c      ****     // Get next token if token type is object
  44:drawer.c      ****     if (crnt_token.type == JSMN_OBJECT){
  45:drawer.c      ****         PARSER_getNextToken(parser, &crnt_token);
  46:drawer.c      ****     }
  47:drawer.c      ****     
  48:drawer.c      ****         switch(crnt_token.type){            
  49:drawer.c      ****             case JSMN_STRING:
  50:drawer.c      ****                 // Check if content is 'c'
  51:drawer.c      ****                 if(parser->content[crnt_token.start] == 'c'){
  52:drawer.c      ****                     
  53:drawer.c      ****                         // Return if function call failes
  54:drawer.c      ****                     if (PARSER_getNextToken(parser, &crnt_token) != 0){
  55:drawer.c      ****                         return RC_ERROR;
  56:drawer.c      ****                     }
  57:drawer.c      ****                     
  58:drawer.c      ****                     // Check if tokentype is not a string
  59:drawer.c      ****                     if (crnt_token.type != JSMN_STRING){
  60:drawer.c      ****                         return RC_ERROR;
  61:drawer.c      ****                     }
  62:drawer.c      ****             
  63:drawer.c      ****                     // Allocate dynamic array
  64:drawer.c      ****                     uint8_t colorLength = crnt_token.end - crnt_token.start;
  65:drawer.c      ****                     uint8_t *color = (uint8_t*) malloc(colorLength * sizeof(uint8_t)); 
  66:drawer.c      ****                     
  67:drawer.c      ****                     // Get the string which indicates the color
  68:drawer.c      ****                     for(unsigned int it_colorLength = 0; it_colorLength<colorLength; it_colorLength
  69:drawer.c      ****                         color[it_colorLength] = parser->content[crnt_token.start + it_colorLength];
  70:drawer.c      ****                         if(it_colorLength == colorLength-1){
  71:drawer.c      ****                             color[it_colorLength+1] = '\0'; 
  72:drawer.c      ****                         }
  73:drawer.c      ****                     }
  74:drawer.c      ****                     
  75:drawer.c      ****                     // Search for values which correspons with string and set it to tft_color
  76:drawer.c      ****                     item* found = search(items, num_items, color);
  77:drawer.c      ****                     tft_color = found->value;
  78:drawer.c      ****                     
  79:drawer.c      ****                     // Set the command and the color
  80:drawer.c      ****                     me->command = DRAWER_CMD_COLOR; 
  81:drawer.c      ****                     me->data.color = tft_color;
  82:drawer.c      ****                     
  83:drawer.c      ****                     // Free memory
  84:drawer.c      ****                     free(color); 
  85:drawer.c      ****                 } 
  86:drawer.c      ****                 
  87:drawer.c      ****                 else if(parser->content[crnt_token.start] == 'd'){
ARM GAS  C:\Users\DABBIR~1\AppData\Local\Temp\cci4P5EK.s 			page 3


  88:drawer.c      ****                         // Get next token 
  89:drawer.c      ****                         if (PARSER_getNextToken(parser, &crnt_token) != 0){
  90:drawer.c      ****                             return RC_ERROR;
  91:drawer.c      ****                         }
  92:drawer.c      ****                         
  93:drawer.c      ****                         // Go through the next 4 tokens and get the vlaues
  94:drawer.c      ****                         for(int allTokens = 0; allTokens <4; allTokens++){
  95:drawer.c      ****                             // Get next token 
  96:drawer.c      ****                             if (PARSER_getNextToken(parser, &crnt_token) != 0){
  97:drawer.c      ****                                 return RC_ERROR;
  98:drawer.c      ****                             }
  99:drawer.c      ****                             
 100:drawer.c      ****                             // Check if token is a primitive
 101:drawer.c      ****                             if (crnt_token.type != JSMN_PRIMITIVE){
 102:drawer.c      ****                                 return RC_ERROR;
 103:drawer.c      ****                             }
 104:drawer.c      ****                             
 105:drawer.c      ****                             // Allocate memory
 106:drawer.c      ****                             uint8_t primitiveLength = crnt_token.end - crnt_token.start;
 107:drawer.c      ****                             char* coordinate = (char*) malloc(primitiveLength * sizeof(char));
 108:drawer.c      ****                         
 109:drawer.c      ****                             // Get the values as a string
 110:drawer.c      ****                             for(uint8_t it_primitive = 0; it_primitive<primitiveLength; it_primitiv
 111:drawer.c      ****                                 coordinate[it_primitive] = parser->content[crnt_token.start + it_pr
 112:drawer.c      ****                                 if(it_primitive == (primitiveLength - 1)){
 113:drawer.c      ****                                     coordinate[it_primitive+1] = '\0'; 
 114:drawer.c      ****                                 }   
 115:drawer.c      ****                             }
 116:drawer.c      ****                             // Convert string to an integer
 117:drawer.c      ****                             uint8_t value = (uint8_t) atoi(coordinate);
 118:drawer.c      ****                             
 119:drawer.c      ****                             // Free Space
 120:drawer.c      ****                             free(coordinate); 
 121:drawer.c      ****                             
 122:drawer.c      ****                             // Assign value to coordinate array
 123:drawer.c      ****                             me->data.coordinate[allTokens] = value; 
 124:drawer.c      ****                         }
 125:drawer.c      ****                     
 126:drawer.c      ****                         me->command = DRAWER_CMD_DRAW;
 127:drawer.c      ****                 } 
 128:drawer.c      ****             break; 
 129:drawer.c      ****            
 130:drawer.c      ****             default:
 131:drawer.c      ****                 return RC_ERROR; 
 132:drawer.c      ****             break;
 133:drawer.c      ****             }
 134:drawer.c      ****     
 135:drawer.c      ****     return RC_SUCCESS;
 136:drawer.c      **** }
 137:drawer.c      **** 
 138:drawer.c      **** item* search(item* items, size_t size, const char* color){
  28              		.loc 1 138 0
  29              		.cfi_startproc
  30              		@ args = 0, pretend = 0, frame = 0
  31              		@ frame_needed = 0, uses_anonymous_args = 0
  32              	.LVL0:
  33 0000 2DE9F041 		push	{r4, r5, r6, r7, r8, lr}
ARM GAS  C:\Users\DABBIR~1\AppData\Local\Temp\cci4P5EK.s 			page 4


  34              		.cfi_def_cfa_offset 24
  35              		.cfi_offset 4, -24
  36              		.cfi_offset 5, -20
  37              		.cfi_offset 6, -16
  38              		.cfi_offset 7, -12
  39              		.cfi_offset 8, -8
  40              		.cfi_offset 14, -4
  41 0004 0546     		mov	r5, r0
  42 0006 0F46     		mov	r7, r1
  43 0008 9046     		mov	r8, r2
  44              	.LVL1:
  45              	.LBB2:
 139:drawer.c      ****     // Go through lookup table and compare string to string of the lookup table
 140:drawer.c      ****     for (size_t it=0; it<size; it++) {
  46              		.loc 1 140 0
  47 000a 0024     		movs	r4, #0
  48 000c 08E0     		b	.L2
  49              	.LVL2:
  50              	.L4:
 141:drawer.c      ****         // When found return the value
 142:drawer.c      ****         if (strcmp(items[it].color, color) == 0) {
  51              		.loc 1 142 0
  52 000e 05EBC406 		add	r6, r5, r4, lsl #3
  53 0012 4146     		mov	r1, r8
  54 0014 55F83400 		ldr	r0, [r5, r4, lsl #3]
  55 0018 FFF7FEFF 		bl	strcmp
  56              	.LVL3:
  57 001c 18B1     		cbz	r0, .L3
 140:drawer.c      ****         // When found return the value
  58              		.loc 1 140 0 discriminator 2
  59 001e 0134     		adds	r4, r4, #1
  60              	.LVL4:
  61              	.L2:
 140:drawer.c      ****         // When found return the value
  62              		.loc 1 140 0 is_stmt 0 discriminator 1
  63 0020 BC42     		cmp	r4, r7
  64 0022 F4D3     		bcc	.L4
  65              	.LBE2:
 143:drawer.c      ****             return &items[it];
 144:drawer.c      ****         }
 145:drawer.c      ****     }
 146:drawer.c      ****     return NULL;
  66              		.loc 1 146 0 is_stmt 1
  67 0024 0026     		movs	r6, #0
  68              	.L3:
 147:drawer.c      **** }
  69              		.loc 1 147 0
  70 0026 3046     		mov	r0, r6
  71 0028 BDE8F081 		pop	{r4, r5, r6, r7, r8, pc}
  72              		.cfi_endproc
  73              	.LFE2:
  74              		.size	search, .-search
  75              		.section	.text.DRAWER_getNextDrawCommand,"ax",%progbits
  76              		.align	2
  77              		.global	DRAWER_getNextDrawCommand
  78              		.thumb
  79              		.thumb_func
ARM GAS  C:\Users\DABBIR~1\AppData\Local\Temp\cci4P5EK.s 			page 5


  80              		.type	DRAWER_getNextDrawCommand, %function
  81              	DRAWER_getNextDrawCommand:
  82              	.LFB1:
  32:drawer.c      ****     jsmntok_t crnt_token;
  83              		.loc 1 32 0
  84              		.cfi_startproc
  85              		@ args = 0, pretend = 0, frame = 16
  86              		@ frame_needed = 0, uses_anonymous_args = 0
  87              	.LVL5:
  88 0000 2DE9F043 		push	{r4, r5, r6, r7, r8, r9, lr}
  89              		.cfi_def_cfa_offset 28
  90              		.cfi_offset 4, -28
  91              		.cfi_offset 5, -24
  92              		.cfi_offset 6, -20
  93              		.cfi_offset 7, -16
  94              		.cfi_offset 8, -12
  95              		.cfi_offset 9, -8
  96              		.cfi_offset 14, -4
  97 0004 85B0     		sub	sp, sp, #20
  98              		.cfi_def_cfa_offset 48
  99 0006 8146     		mov	r9, r0
 100 0008 0D46     		mov	r5, r1
  39:drawer.c      ****             return RC_ERROR;
 101              		.loc 1 39 0
 102 000a 6946     		mov	r1, sp
 103              	.LVL6:
 104 000c 2846     		mov	r0, r5
 105              	.LVL7:
 106 000e FFF7FEFF 		bl	PARSER_getNextToken
 107              	.LVL8:
 108 0012 0028     		cmp	r0, #0
 109 0014 40F08880 		bne	.L19
 110 0018 0746     		mov	r7, r0
  44:drawer.c      ****         PARSER_getNextToken(parser, &crnt_token);
 111              		.loc 1 44 0
 112 001a 9DF80030 		ldrb	r3, [sp]	@ zero_extendqisi2
 113 001e 012B     		cmp	r3, #1
 114 0020 03D1     		bne	.L8
  45:drawer.c      ****     }
 115              		.loc 1 45 0
 116 0022 6946     		mov	r1, sp
 117 0024 2846     		mov	r0, r5
 118 0026 FFF7FEFF 		bl	PARSER_getNextToken
 119              	.LVL9:
 120              	.L8:
  48:drawer.c      ****             case JSMN_STRING:
 121              		.loc 1 48 0
 122 002a 9DF80030 		ldrb	r3, [sp]	@ zero_extendqisi2
 123 002e 042B     		cmp	r3, #4
 124 0030 7DD1     		bne	.L26
  51:drawer.c      ****                     
 125              		.loc 1 51 0
 126 0032 019B     		ldr	r3, [sp, #4]
 127 0034 2B44     		add	r3, r3, r5
 128 0036 1B7B     		ldrb	r3, [r3, #12]	@ zero_extendqisi2
 129 0038 632B     		cmp	r3, #99
 130 003a 33D1     		bne	.L10
ARM GAS  C:\Users\DABBIR~1\AppData\Local\Temp\cci4P5EK.s 			page 6


 131              	.LBB3:
  54:drawer.c      ****                         return RC_ERROR;
 132              		.loc 1 54 0
 133 003c 6946     		mov	r1, sp
 134 003e 2846     		mov	r0, r5
 135 0040 FFF7FEFF 		bl	PARSER_getNextToken
 136              	.LVL10:
 137 0044 0746     		mov	r7, r0
 138 0046 0028     		cmp	r0, #0
 139 0048 74D1     		bne	.L21
  59:drawer.c      ****                         return RC_ERROR;
 140              		.loc 1 59 0
 141 004a 9DF80030 		ldrb	r3, [sp]	@ zero_extendqisi2
 142 004e 042B     		cmp	r3, #4
 143 0050 73D1     		bne	.L22
  64:drawer.c      ****                     uint8_t *color = (uint8_t*) malloc(colorLength * sizeof(uint8_t)); 
 144              		.loc 1 64 0
 145 0052 019C     		ldr	r4, [sp, #4]
 146 0054 029B     		ldr	r3, [sp, #8]
 147 0056 1C1B     		subs	r4, r3, r4
 148 0058 E4B2     		uxtb	r4, r4
 149              	.LVL11:
  65:drawer.c      ****                     
 150              		.loc 1 65 0
 151 005a A046     		mov	r8, r4
 152 005c 2046     		mov	r0, r4
 153 005e FFF7FEFF 		bl	malloc
 154              	.LVL12:
 155 0062 0646     		mov	r6, r0
 156              	.LVL13:
 157              	.LBB4:
  68:drawer.c      ****                         color[it_colorLength] = parser->content[crnt_token.start + it_colorLength];
 158              		.loc 1 68 0
 159 0064 0023     		movs	r3, #0
 160 0066 0BE0     		b	.L11
 161              	.LVL14:
 162              	.L13:
  69:drawer.c      ****                         if(it_colorLength == colorLength-1){
 163              		.loc 1 69 0
 164 0068 019A     		ldr	r2, [sp, #4]
 165 006a 1A44     		add	r2, r2, r3
 166 006c 2A44     		add	r2, r2, r5
 167 006e 127B     		ldrb	r2, [r2, #12]	@ zero_extendqisi2
 168 0070 F254     		strb	r2, [r6, r3]
  70:drawer.c      ****                             color[it_colorLength+1] = '\0'; 
 169              		.loc 1 70 0
 170 0072 621E     		subs	r2, r4, #1
 171 0074 9342     		cmp	r3, r2
 172 0076 02D1     		bne	.L12
  71:drawer.c      ****                         }
 173              		.loc 1 71 0
 174 0078 5A1C     		adds	r2, r3, #1
 175 007a 0021     		movs	r1, #0
 176 007c B154     		strb	r1, [r6, r2]
 177              	.L12:
  68:drawer.c      ****                         color[it_colorLength] = parser->content[crnt_token.start + it_colorLength];
 178              		.loc 1 68 0 discriminator 2
ARM GAS  C:\Users\DABBIR~1\AppData\Local\Temp\cci4P5EK.s 			page 7


 179 007e 0133     		adds	r3, r3, #1
 180              	.LVL15:
 181              	.L11:
  68:drawer.c      ****                         color[it_colorLength] = parser->content[crnt_token.start + it_colorLength];
 182              		.loc 1 68 0 is_stmt 0 discriminator 1
 183 0080 4345     		cmp	r3, r8
 184 0082 F1D3     		bcc	.L13
 185              	.LBE4:
  76:drawer.c      ****                     tft_color = found->value;
 186              		.loc 1 76 0 is_stmt 1
 187 0084 3448     		ldr	r0, .L28
 188              	.LVL16:
 189 0086 3246     		mov	r2, r6
 190 0088 50F8041B 		ldr	r1, [r0], #4
 191 008c FFF7FEFF 		bl	search
 192              	.LVL17:
  77:drawer.c      ****                     
 193              		.loc 1 77 0
 194 0090 8388     		ldrh	r3, [r0, #4]
 195              	.LVL18:
  80:drawer.c      ****                     me->data.color = tft_color;
 196              		.loc 1 80 0
 197 0092 0022     		movs	r2, #0
 198 0094 89F80020 		strb	r2, [r9]
  81:drawer.c      ****                     
 199              		.loc 1 81 0
 200 0098 A9F80230 		strh	r3, [r9, #2]	@ movhi
  84:drawer.c      ****                 } 
 201              		.loc 1 84 0
 202 009c 3046     		mov	r0, r6
 203              	.LVL19:
 204 009e FFF7FEFF 		bl	free
 205              	.LVL20:
 206              	.LBE3:
 207 00a2 55E0     		b	.L7
 208              	.LVL21:
 209              	.L10:
  87:drawer.c      ****                         // Get next token 
 210              		.loc 1 87 0
 211 00a4 642B     		cmp	r3, #100
 212 00a6 53D1     		bne	.L7
  89:drawer.c      ****                             return RC_ERROR;
 213              		.loc 1 89 0
 214 00a8 6946     		mov	r1, sp
 215 00aa 2846     		mov	r0, r5
 216 00ac FFF7FEFF 		bl	PARSER_getNextToken
 217              	.LVL22:
 218 00b0 0746     		mov	r7, r0
 219 00b2 0028     		cmp	r0, #0
 220 00b4 44D1     		bne	.L23
 221 00b6 4FF00008 		mov	r8, #0
 222 00ba 2EE0     		b	.L14
 223              	.LVL23:
 224              	.L18:
 225              	.LBB5:
 226              	.LBB6:
  96:drawer.c      ****                                 return RC_ERROR;
ARM GAS  C:\Users\DABBIR~1\AppData\Local\Temp\cci4P5EK.s 			page 8


 227              		.loc 1 96 0
 228 00bc 6946     		mov	r1, sp
 229 00be 2846     		mov	r0, r5
 230 00c0 FFF7FEFF 		bl	PARSER_getNextToken
 231              	.LVL24:
 232 00c4 0028     		cmp	r0, #0
 233 00c6 3ED1     		bne	.L24
 101:drawer.c      ****                                 return RC_ERROR;
 234              		.loc 1 101 0
 235 00c8 9DF80030 		ldrb	r3, [sp]	@ zero_extendqisi2
 236 00cc 082B     		cmp	r3, #8
 237 00ce 3DD1     		bne	.L25
 106:drawer.c      ****                             char* coordinate = (char*) malloc(primitiveLength * sizeof(char));
 238              		.loc 1 106 0
 239 00d0 019C     		ldr	r4, [sp, #4]
 240 00d2 029B     		ldr	r3, [sp, #8]
 241 00d4 1C1B     		subs	r4, r3, r4
 242 00d6 E4B2     		uxtb	r4, r4
 243              	.LVL25:
 107:drawer.c      ****                         
 244              		.loc 1 107 0
 245 00d8 2046     		mov	r0, r4
 246 00da FFF7FEFF 		bl	malloc
 247              	.LVL26:
 248 00de 0646     		mov	r6, r0
 249              	.LVL27:
 250              	.LBB7:
 110:drawer.c      ****                                 coordinate[it_primitive] = parser->content[crnt_token.start + it_pr
 251              		.loc 1 110 0
 252 00e0 0023     		movs	r3, #0
 253 00e2 0CE0     		b	.L15
 254              	.LVL28:
 255              	.L17:
 111:drawer.c      ****                                 if(it_primitive == (primitiveLength - 1)){
 256              		.loc 1 111 0
 257 00e4 019A     		ldr	r2, [sp, #4]
 258 00e6 1A44     		add	r2, r2, r3
 259 00e8 2A44     		add	r2, r2, r5
 260 00ea 127B     		ldrb	r2, [r2, #12]	@ zero_extendqisi2
 261 00ec F254     		strb	r2, [r6, r3]
 112:drawer.c      ****                                     coordinate[it_primitive+1] = '\0'; 
 262              		.loc 1 112 0
 263 00ee 621E     		subs	r2, r4, #1
 264 00f0 9342     		cmp	r3, r2
 265 00f2 02D1     		bne	.L16
 113:drawer.c      ****                                 }   
 266              		.loc 1 113 0
 267 00f4 5A1C     		adds	r2, r3, #1
 268 00f6 0021     		movs	r1, #0
 269 00f8 B154     		strb	r1, [r6, r2]
 270              	.L16:
 110:drawer.c      ****                                 coordinate[it_primitive] = parser->content[crnt_token.start + it_pr
 271              		.loc 1 110 0 discriminator 2
 272 00fa 0133     		adds	r3, r3, #1
 273              	.LVL29:
 274 00fc DBB2     		uxtb	r3, r3
 275              	.LVL30:
ARM GAS  C:\Users\DABBIR~1\AppData\Local\Temp\cci4P5EK.s 			page 9


 276              	.L15:
 110:drawer.c      ****                                 coordinate[it_primitive] = parser->content[crnt_token.start + it_pr
 277              		.loc 1 110 0 is_stmt 0 discriminator 1
 278 00fe A342     		cmp	r3, r4
 279 0100 F0D3     		bcc	.L17
 280              	.LBE7:
 117:drawer.c      ****                             
 281              		.loc 1 117 0 is_stmt 1 discriminator 2
 282 0102 3046     		mov	r0, r6
 283              	.LVL31:
 284 0104 FFF7FEFF 		bl	atoi
 285              	.LVL32:
 286 0108 C4B2     		uxtb	r4, r0
 287              	.LVL33:
 120:drawer.c      ****                             
 288              		.loc 1 120 0 discriminator 2
 289 010a 3046     		mov	r0, r6
 290 010c FFF7FEFF 		bl	free
 291              	.LVL34:
 123:drawer.c      ****                         }
 292              		.loc 1 123 0 discriminator 2
 293 0110 09EB0803 		add	r3, r9, r8
 294 0114 9C70     		strb	r4, [r3, #2]
 295              	.LBE6:
  94:drawer.c      ****                             // Get next token 
 296              		.loc 1 94 0 discriminator 2
 297 0116 08F10108 		add	r8, r8, #1
 298              	.LVL35:
 299              	.L14:
  94:drawer.c      ****                             // Get next token 
 300              		.loc 1 94 0 is_stmt 0 discriminator 1
 301 011a B8F1030F 		cmp	r8, #3
 302 011e CDDD     		ble	.L18
 303              	.LBE5:
 126:drawer.c      ****                 } 
 304              		.loc 1 126 0 is_stmt 1
 305 0120 0123     		movs	r3, #1
 306 0122 89F80030 		strb	r3, [r9]
 307 0126 13E0     		b	.L7
 308              	.LVL36:
 309              	.L19:
  40:drawer.c      ****     }
 310              		.loc 1 40 0
 311 0128 4FF0FF37 		mov	r7, #-1
 312 012c 10E0     		b	.L7
 313              	.L26:
 131:drawer.c      ****             break;
 314              		.loc 1 131 0
 315 012e 4FF0FF37 		mov	r7, #-1
 316 0132 0DE0     		b	.L7
 317              	.L21:
 318              	.LBB9:
  55:drawer.c      ****                     }
 319              		.loc 1 55 0
 320 0134 4FF0FF37 		mov	r7, #-1
 321 0138 0AE0     		b	.L7
 322              	.L22:
ARM GAS  C:\Users\DABBIR~1\AppData\Local\Temp\cci4P5EK.s 			page 10


  60:drawer.c      ****                     }
 323              		.loc 1 60 0
 324 013a 4FF0FF37 		mov	r7, #-1
 325 013e 07E0     		b	.L7
 326              	.L23:
 327              	.LBE9:
  90:drawer.c      ****                         }
 328              		.loc 1 90 0
 329 0140 4FF0FF37 		mov	r7, #-1
 330 0144 04E0     		b	.L7
 331              	.LVL37:
 332              	.L24:
 333              	.LBB10:
 334              	.LBB8:
  97:drawer.c      ****                             }
 335              		.loc 1 97 0
 336 0146 4FF0FF37 		mov	r7, #-1
 337 014a 01E0     		b	.L7
 338              	.L25:
 102:drawer.c      ****                             }
 339              		.loc 1 102 0
 340 014c 4FF0FF37 		mov	r7, #-1
 341              	.LVL38:
 342              	.L7:
 343              	.LBE8:
 344              	.LBE10:
 136:drawer.c      **** 
 345              		.loc 1 136 0
 346 0150 3846     		mov	r0, r7
 347 0152 05B0     		add	sp, sp, #20
 348              		.cfi_def_cfa_offset 28
 349              		@ sp needed
 350 0154 BDE8F083 		pop	{r4, r5, r6, r7, r8, r9, pc}
 351              	.LVL39:
 352              	.L29:
 353              		.align	2
 354              	.L28:
 355 0158 00000000 		.word	.LANCHOR0
 356              		.cfi_endproc
 357              	.LFE1:
 358              		.size	DRAWER_getNextDrawCommand, .-DRAWER_getNextDrawCommand
 359              		.global	num_items
 360              		.global	items
 361              		.data
 362              		.align	2
 363              		.set	.LANCHOR0,. + 0
 364              		.type	num_items, %object
 365              		.size	num_items, 4
 366              	num_items:
 367 0000 07000000 		.word	7
 368              		.type	items, %object
 369              		.size	items, 56
 370              	items:
 371 0004 00000000 		.word	.LC0
 372 0008 1F000000 		.word	31
 373 000c 04000000 		.word	.LC1
 374 0010 00F80000 		.word	63488
ARM GAS  C:\Users\DABBIR~1\AppData\Local\Temp\cci4P5EK.s 			page 11


 375 0014 0C000000 		.word	.LC2
 376 0018 E0070000 		.word	2016
 377 001c 14000000 		.word	.LC3
 378 0020 FFFF0000 		.word	65535
 379 0024 1C000000 		.word	.LC4
 380 0028 00000000 		.word	0
 381 002c 24000000 		.word	.LC5
 382 0030 1FF80000 		.word	63519
 383 0034 2C000000 		.word	.LC6
 384 0038 FF070000 		.word	2047
 385              		.section	.rodata.str1.4,"aMS",%progbits,1
 386              		.align	2
 387              	.LC0:
 388 0000 72656400 		.ascii	"red\000"
 389              	.LC1:
 390 0004 626C7565 		.ascii	"blue\000"
 390      00
 391 0009 000000   		.space	3
 392              	.LC2:
 393 000c 67726565 		.ascii	"green\000"
 393      6E00
 394 0012 0000     		.space	2
 395              	.LC3:
 396 0014 77686974 		.ascii	"white\000"
 396      6500
 397 001a 0000     		.space	2
 398              	.LC4:
 399 001c 626C6163 		.ascii	"black\000"
 399      6B00
 400 0022 0000     		.space	2
 401              	.LC5:
 402 0024 6D616765 		.ascii	"magenta\000"
 402      6E746100 
 403              	.LC6:
 404 002c 79656C6C 		.ascii	"yellow\000"
 404      6F7700
 405              		.text
 406              	.Letext0:
 407              		.file 2 ".\\source\\bsw/global.h"
 408              		.file 3 "c:\\program files (x86)\\cypress\\psoc creator\\4.4\\psoc creator\\import\\gnu\\arm\\5.4.
 409              		.file 4 ".\\source\\bsw\\tft/tft.h"
 410              		.file 5 ".\\source\\bsw/jsmn.h"
 411              		.file 6 ".\\source\\bsw/parser.h"
 412              		.file 7 ".\\source\\bsw/drawer.h"
 413              		.file 8 "<built-in>"
 414              		.file 9 "c:\\program files (x86)\\cypress\\psoc creator\\4.4\\psoc creator\\import\\gnu\\arm\\5.4.