ARM GAS  C:\Users\DABBIR~1\AppData\Local\Temp\ccRMfF9I.s 			page 1


   1              		.syntax unified
   2              		.cpu cortex-m3
   3              		.fpu softvfp
   4              		.eabi_attribute 20, 1
   5              		.eabi_attribute 21, 1
   6              		.eabi_attribute 23, 3
   7              		.eabi_attribute 24, 1
   8              		.eabi_attribute 25, 1
   9              		.eabi_attribute 26, 1
  10              		.eabi_attribute 30, 1
  11              		.eabi_attribute 34, 1
  12              		.eabi_attribute 18, 4
  13              		.thumb
  14              		.syntax unified
  15              		.file	"ErikaOS_1_ee_thendin.c"
  16              		.text
  17              	.Ltext0:
  18              		.cfi_sections	.debug_frame
  19              		.section	.text.EE_thread_rnact_max,"ax",%progbits
  20              		.align	2
  21              		.thumb
  22              		.thumb_func
  23              		.type	EE_thread_rnact_max, %function
  24              	EE_thread_rnact_max:
  25              	.LFB60:
  26              		.file 1 "Generated_Source\\PSoC5\\ErikaOS_1_ee_thendin.c"
   1:Generated_Source\PSoC5/ErikaOS_1_ee_thendin.c **** /* ###*B*###
   2:Generated_Source\PSoC5/ErikaOS_1_ee_thendin.c ****  * ERIKA Enterprise - a tiny RTOS for small microcontrollers
   3:Generated_Source\PSoC5/ErikaOS_1_ee_thendin.c ****  *
   4:Generated_Source\PSoC5/ErikaOS_1_ee_thendin.c ****  * Copyright (C) 2002-2008  Evidence Srl
   5:Generated_Source\PSoC5/ErikaOS_1_ee_thendin.c ****  *
   6:Generated_Source\PSoC5/ErikaOS_1_ee_thendin.c ****  * This file is part of ERIKA Enterprise.
   7:Generated_Source\PSoC5/ErikaOS_1_ee_thendin.c ****  *
   8:Generated_Source\PSoC5/ErikaOS_1_ee_thendin.c ****  * ERIKA Enterprise is free software; you can redistribute it
   9:Generated_Source\PSoC5/ErikaOS_1_ee_thendin.c ****  * and/or modify it under the terms of the GNU General Public License
  10:Generated_Source\PSoC5/ErikaOS_1_ee_thendin.c ****  * version 2 as published by the Free Software Foundation, 
  11:Generated_Source\PSoC5/ErikaOS_1_ee_thendin.c ****  * (with a special exception described below).
  12:Generated_Source\PSoC5/ErikaOS_1_ee_thendin.c ****  *
  13:Generated_Source\PSoC5/ErikaOS_1_ee_thendin.c ****  * Linking this code statically or dynamically with other modules is
  14:Generated_Source\PSoC5/ErikaOS_1_ee_thendin.c ****  * making a combined work based on this code.  Thus, the terms and
  15:Generated_Source\PSoC5/ErikaOS_1_ee_thendin.c ****  * conditions of the GNU General Public License cover the whole
  16:Generated_Source\PSoC5/ErikaOS_1_ee_thendin.c ****  * combination.
  17:Generated_Source\PSoC5/ErikaOS_1_ee_thendin.c ****  *
  18:Generated_Source\PSoC5/ErikaOS_1_ee_thendin.c ****  * As a special exception, the copyright holders of this library give you
  19:Generated_Source\PSoC5/ErikaOS_1_ee_thendin.c ****  * permission to link this code with independent modules to produce an
  20:Generated_Source\PSoC5/ErikaOS_1_ee_thendin.c ****  * executable, regardless of the license terms of these independent
  21:Generated_Source\PSoC5/ErikaOS_1_ee_thendin.c ****  * modules, and to copy and distribute the resulting executable under
  22:Generated_Source\PSoC5/ErikaOS_1_ee_thendin.c ****  * terms of your choice, provided that you also meet, for each linked
  23:Generated_Source\PSoC5/ErikaOS_1_ee_thendin.c ****  * independent module, the terms and conditions of the license of that
  24:Generated_Source\PSoC5/ErikaOS_1_ee_thendin.c ****  * module.  An independent module is a module which is not derived from
  25:Generated_Source\PSoC5/ErikaOS_1_ee_thendin.c ****  * or based on this library.  If you modify this code, you may extend
  26:Generated_Source\PSoC5/ErikaOS_1_ee_thendin.c ****  * this exception to your version of the code, but you are not
  27:Generated_Source\PSoC5/ErikaOS_1_ee_thendin.c ****  * obligated to do so.  If you do not wish to do so, delete this
  28:Generated_Source\PSoC5/ErikaOS_1_ee_thendin.c ****  * exception statement from your version.
  29:Generated_Source\PSoC5/ErikaOS_1_ee_thendin.c ****  *
  30:Generated_Source\PSoC5/ErikaOS_1_ee_thendin.c ****  * ERIKA Enterprise is distributed in the hope that it will be
  31:Generated_Source\PSoC5/ErikaOS_1_ee_thendin.c ****  * useful, but WITHOUT ANY WARRANTY; without even the implied warranty
ARM GAS  C:\Users\DABBIR~1\AppData\Local\Temp\ccRMfF9I.s 			page 2


  32:Generated_Source\PSoC5/ErikaOS_1_ee_thendin.c ****  * of MERCHANTABILITY or FITNESS FOR A PARTICULAR PURPOSE.  See the
  33:Generated_Source\PSoC5/ErikaOS_1_ee_thendin.c ****  * GNU General Public License version 2 for more details.
  34:Generated_Source\PSoC5/ErikaOS_1_ee_thendin.c ****  *
  35:Generated_Source\PSoC5/ErikaOS_1_ee_thendin.c ****  * You should have received a copy of the GNU General Public License
  36:Generated_Source\PSoC5/ErikaOS_1_ee_thendin.c ****  * version 2 along with ERIKA Enterprise; if not, write to the
  37:Generated_Source\PSoC5/ErikaOS_1_ee_thendin.c ****  * Free Software Foundation, Inc., 51 Franklin Street, Fifth Floor,
  38:Generated_Source\PSoC5/ErikaOS_1_ee_thendin.c ****  * Boston, MA 02110-1301 USA.
  39:Generated_Source\PSoC5/ErikaOS_1_ee_thendin.c ****  * ###*E*### */
  40:Generated_Source\PSoC5/ErikaOS_1_ee_thendin.c **** 
  41:Generated_Source\PSoC5/ErikaOS_1_ee_thendin.c **** /*
  42:Generated_Source\PSoC5/ErikaOS_1_ee_thendin.c ****  * Author: 2002-2004 Paolo Gai
  43:Generated_Source\PSoC5/ErikaOS_1_ee_thendin.c ****  * CVS: $Id: ee_thendin.c,v 1.3 2006/01/24 10:20:20 pj Exp $
  44:Generated_Source\PSoC5/ErikaOS_1_ee_thendin.c ****  */
  45:Generated_Source\PSoC5/ErikaOS_1_ee_thendin.c **** 
  46:Generated_Source\PSoC5/ErikaOS_1_ee_thendin.c **** /*
  47:Generated_Source\PSoC5/ErikaOS_1_ee_thendin.c ****  * PSoC Port and API Generation
  48:Generated_Source\PSoC5/ErikaOS_1_ee_thendin.c ****  * Carlos Fernando Meier Martinez
  49:Generated_Source\PSoC5/ErikaOS_1_ee_thendin.c ****  * Hochschule Darmstadt, Germany. 2017.
  50:Generated_Source\PSoC5/ErikaOS_1_ee_thendin.c ****  */
  51:Generated_Source\PSoC5/ErikaOS_1_ee_thendin.c **** #include "ErikaOS_1_ee_tracing.h"
  52:Generated_Source\PSoC5/ErikaOS_1_ee_thendin.c **** 
  53:Generated_Source\PSoC5/ErikaOS_1_ee_thendin.c **** #include "ErikaOS_1_ee_internal.inc"
  54:Generated_Source\PSoC5/ErikaOS_1_ee_thendin.c **** 
  55:Generated_Source\PSoC5/ErikaOS_1_ee_thendin.c **** #if (__OO_configUSE_TRACE_FACILITY == 1)
  56:Generated_Source\PSoC5/ErikaOS_1_ee_thendin.c **** #include "trcKernelPort.h"
  57:Generated_Source\PSoC5/ErikaOS_1_ee_thendin.c **** #endif
  58:Generated_Source\PSoC5/ErikaOS_1_ee_thendin.c **** 
  59:Generated_Source\PSoC5/ErikaOS_1_ee_thendin.c **** #ifndef __PRIVATE_THREAD_END_INSTANCE__
  60:Generated_Source\PSoC5/ErikaOS_1_ee_thendin.c **** 
  61:Generated_Source\PSoC5/ErikaOS_1_ee_thendin.c **** #if (defined(__OO_BCC2__)) || (defined(__OO_ECC2__))
  62:Generated_Source\PSoC5/ErikaOS_1_ee_thendin.c **** static EE_BIT EE_thread_rnact_max(EE_TID current) {
  27              		.loc 1 62 0
  28              		.cfi_startproc
  29              		@ args = 0, pretend = 0, frame = 0
  30              		@ frame_needed = 0, uses_anonymous_args = 0
  31              		@ link register save eliminated.
  32              	.LVL0:
  63:Generated_Source\PSoC5/ErikaOS_1_ee_thendin.c ****   return (EE_th_rnact[current] == EE_th_rnact_max[current]) ? 1U : 0U;
  33              		.loc 1 63 0
  34 0000 054B     		ldr	r3, .L4
  35 0002 53F82020 		ldr	r2, [r3, r0, lsl #2]
  36 0006 054B     		ldr	r3, .L4+4
  37 0008 53F82030 		ldr	r3, [r3, r0, lsl #2]
  38 000c 9A42     		cmp	r2, r3
  39 000e 01D1     		bne	.L3
  40 0010 0120     		movs	r0, #1
  41              	.LVL1:
  42 0012 7047     		bx	lr
  43              	.LVL2:
  44              	.L3:
  45 0014 0020     		movs	r0, #0
  46              	.LVL3:
  64:Generated_Source\PSoC5/ErikaOS_1_ee_thendin.c **** }
  47              		.loc 1 64 0
  48 0016 7047     		bx	lr
  49              	.L5:
  50              		.align	2
ARM GAS  C:\Users\DABBIR~1\AppData\Local\Temp\ccRMfF9I.s 			page 3


  51              	.L4:
  52 0018 00000000 		.word	EE_th_rnact
  53 001c 00000000 		.word	EE_th_rnact_max
  54              		.cfi_endproc
  55              	.LFE60:
  56              		.size	EE_thread_rnact_max, .-EE_thread_rnact_max
  57              		.section	.text.EE_thread_endcycle_next,"ax",%progbits
  58              		.align	2
  59              		.thumb
  60              		.thumb_func
  61              		.type	EE_thread_endcycle_next, %function
  62              	EE_thread_endcycle_next:
  63              	.LFB61:
  65:Generated_Source\PSoC5/ErikaOS_1_ee_thendin.c **** #else /* __OO_BCC2__ || __OO_ECC2__ */
  66:Generated_Source\PSoC5/ErikaOS_1_ee_thendin.c **** #define EE_thread_rnact_max(current)  (1U)
  67:Generated_Source\PSoC5/ErikaOS_1_ee_thendin.c **** #endif /* __OO_BCC2__ || __OO_ECC2__ */
  68:Generated_Source\PSoC5/ErikaOS_1_ee_thendin.c **** 
  69:Generated_Source\PSoC5/ErikaOS_1_ee_thendin.c **** static void EE_thread_endcycle_next(void);
  70:Generated_Source\PSoC5/ErikaOS_1_ee_thendin.c **** 
  71:Generated_Source\PSoC5/ErikaOS_1_ee_thendin.c **** #if (defined(__OO_ECC1__)) || (defined(__OO_ECC2__))
  72:Generated_Source\PSoC5/ErikaOS_1_ee_thendin.c **** static void EE_thread_endcycle_next(void)
  73:Generated_Source\PSoC5/ErikaOS_1_ee_thendin.c **** {
  64              		.loc 1 73 0
  65              		.cfi_startproc
  66              		@ args = 0, pretend = 0, frame = 0
  67              		@ frame_needed = 0, uses_anonymous_args = 0
  68 0000 08B5     		push	{r3, lr}
  69              		.cfi_def_cfa_offset 8
  70              		.cfi_offset 3, -8
  71              		.cfi_offset 14, -4
  74:Generated_Source\PSoC5/ErikaOS_1_ee_thendin.c ****   register EE_TID nexttid;
  75:Generated_Source\PSoC5/ErikaOS_1_ee_thendin.c ****   nexttid = EE_rq2stk_exchange();
  72              		.loc 1 75 0
  73 0002 FFF7FEFF 		bl	EE_rq2stk_exchange
  74              	.LVL4:
  76:Generated_Source\PSoC5/ErikaOS_1_ee_thendin.c ****   if (EE_th_waswaiting[nexttid]) {
  75              		.loc 1 76 0
  76 0006 084B     		ldr	r3, .L10
  77 0008 53F82030 		ldr	r3, [r3, r0, lsl #2]
  78 000c 43B1     		cbz	r3, .L7
  77:Generated_Source\PSoC5/ErikaOS_1_ee_thendin.c ****     EE_th_waswaiting[nexttid] = EE_FALSE;
  79              		.loc 1 77 0
  80 000e 0022     		movs	r2, #0
  81 0010 054B     		ldr	r3, .L10
  82 0012 43F82020 		str	r2, [r3, r0, lsl #2]
  83              	.LVL5:
  84              	.LBB36:
  85              	.LBB37:
  86              		.file 2 "Generated_Source\\PSoC5\\ErikaOS_1_cortex_mx_ee_context.inc"
   1:Generated_Source\PSoC5/ErikaOS_1_cortex_mx_ee_context.inc **** /* ###*B*###
   2:Generated_Source\PSoC5/ErikaOS_1_cortex_mx_ee_context.inc ****  * ERIKA Enterprise - a tiny RTOS for small microcontrollers
   3:Generated_Source\PSoC5/ErikaOS_1_cortex_mx_ee_context.inc ****  *
   4:Generated_Source\PSoC5/ErikaOS_1_cortex_mx_ee_context.inc ****  * Copyright (C) 2002-2011  Evidence Srl
   5:Generated_Source\PSoC5/ErikaOS_1_cortex_mx_ee_context.inc ****  *
   6:Generated_Source\PSoC5/ErikaOS_1_cortex_mx_ee_context.inc ****  * This file is part of ERIKA Enterprise.
   7:Generated_Source\PSoC5/ErikaOS_1_cortex_mx_ee_context.inc ****  *
   8:Generated_Source\PSoC5/ErikaOS_1_cortex_mx_ee_context.inc ****  * ERIKA Enterprise is free software; you can redistribute it
ARM GAS  C:\Users\DABBIR~1\AppData\Local\Temp\ccRMfF9I.s 			page 4


   9:Generated_Source\PSoC5/ErikaOS_1_cortex_mx_ee_context.inc ****  * and/or modify it under the terms of the GNU General Public License
  10:Generated_Source\PSoC5/ErikaOS_1_cortex_mx_ee_context.inc ****  * version 2 as published by the Free Software Foundation, 
  11:Generated_Source\PSoC5/ErikaOS_1_cortex_mx_ee_context.inc ****  * (with a special exception described below).
  12:Generated_Source\PSoC5/ErikaOS_1_cortex_mx_ee_context.inc ****  *
  13:Generated_Source\PSoC5/ErikaOS_1_cortex_mx_ee_context.inc ****  * Linking this code statically or dynamically with other modules is
  14:Generated_Source\PSoC5/ErikaOS_1_cortex_mx_ee_context.inc ****  * making a combined work based on this code.  Thus, the terms and
  15:Generated_Source\PSoC5/ErikaOS_1_cortex_mx_ee_context.inc ****  * conditions of the GNU General Public License cover the whole
  16:Generated_Source\PSoC5/ErikaOS_1_cortex_mx_ee_context.inc ****  * combination.
  17:Generated_Source\PSoC5/ErikaOS_1_cortex_mx_ee_context.inc ****  *
  18:Generated_Source\PSoC5/ErikaOS_1_cortex_mx_ee_context.inc ****  * As a special exception, the copyright holders of this library give you
  19:Generated_Source\PSoC5/ErikaOS_1_cortex_mx_ee_context.inc ****  * permission to link this code with independent modules to produce an
  20:Generated_Source\PSoC5/ErikaOS_1_cortex_mx_ee_context.inc ****  * executable, regardless of the license terms of these independent
  21:Generated_Source\PSoC5/ErikaOS_1_cortex_mx_ee_context.inc ****  * modules, and to copy and distribute the resulting executable under
  22:Generated_Source\PSoC5/ErikaOS_1_cortex_mx_ee_context.inc ****  * terms of your choice, provided that you also meet, for each linked
  23:Generated_Source\PSoC5/ErikaOS_1_cortex_mx_ee_context.inc ****  * independent module, the terms and conditions of the license of that
  24:Generated_Source\PSoC5/ErikaOS_1_cortex_mx_ee_context.inc ****  * module.  An independent module is a module which is not derived from
  25:Generated_Source\PSoC5/ErikaOS_1_cortex_mx_ee_context.inc ****  * or based on this library.  If you modify this code, you may extend
  26:Generated_Source\PSoC5/ErikaOS_1_cortex_mx_ee_context.inc ****  * this exception to your version of the code, but you are not
  27:Generated_Source\PSoC5/ErikaOS_1_cortex_mx_ee_context.inc ****  * obligated to do so.  If you do not wish to do so, delete this
  28:Generated_Source\PSoC5/ErikaOS_1_cortex_mx_ee_context.inc ****  * exception statement from your version.
  29:Generated_Source\PSoC5/ErikaOS_1_cortex_mx_ee_context.inc ****  *
  30:Generated_Source\PSoC5/ErikaOS_1_cortex_mx_ee_context.inc ****  * ERIKA Enterprise is distributed in the hope that it will be
  31:Generated_Source\PSoC5/ErikaOS_1_cortex_mx_ee_context.inc ****  * useful, but WITHOUT ANY WARRANTY; without even the implied warranty
  32:Generated_Source\PSoC5/ErikaOS_1_cortex_mx_ee_context.inc ****  * of MERCHANTABILITY or FITNESS FOR A PARTICULAR PURPOSE.  See the
  33:Generated_Source\PSoC5/ErikaOS_1_cortex_mx_ee_context.inc ****  * GNU General Public License version 2 for more details.
  34:Generated_Source\PSoC5/ErikaOS_1_cortex_mx_ee_context.inc ****  *
  35:Generated_Source\PSoC5/ErikaOS_1_cortex_mx_ee_context.inc ****  * You should have received a copy of the GNU General Public License
  36:Generated_Source\PSoC5/ErikaOS_1_cortex_mx_ee_context.inc ****  * version 2 along with ERIKA Enterprise; if not, write to the
  37:Generated_Source\PSoC5/ErikaOS_1_cortex_mx_ee_context.inc ****  * Free Software Foundation, Inc., 51 Franklin Street, Fifth Floor,
  38:Generated_Source\PSoC5/ErikaOS_1_cortex_mx_ee_context.inc ****  * Boston, MA 02110-1301 USA.
  39:Generated_Source\PSoC5/ErikaOS_1_cortex_mx_ee_context.inc ****  * ###*E*### */
  40:Generated_Source\PSoC5/ErikaOS_1_cortex_mx_ee_context.inc **** 
  41:Generated_Source\PSoC5/ErikaOS_1_cortex_mx_ee_context.inc **** /** 
  42:Generated_Source\PSoC5/ErikaOS_1_cortex_mx_ee_context.inc **** 	@file ee_internal.h
  43:Generated_Source\PSoC5/ErikaOS_1_cortex_mx_ee_context.inc **** 	@brief Derived from cpu/common/inc/ee_internal.h
  44:Generated_Source\PSoC5/ErikaOS_1_cortex_mx_ee_context.inc **** 	@author Gianluca Franchino
  45:Generated_Source\PSoC5/ErikaOS_1_cortex_mx_ee_context.inc **** 	@author Giuseppe Serano
  46:Generated_Source\PSoC5/ErikaOS_1_cortex_mx_ee_context.inc **** 	@date 2011
  47:Generated_Source\PSoC5/ErikaOS_1_cortex_mx_ee_context.inc **** */  
  48:Generated_Source\PSoC5/ErikaOS_1_cortex_mx_ee_context.inc ****     
  49:Generated_Source\PSoC5/ErikaOS_1_cortex_mx_ee_context.inc **** /*
  50:Generated_Source\PSoC5/ErikaOS_1_cortex_mx_ee_context.inc ****  * PSoC Port and API Generation
  51:Generated_Source\PSoC5/ErikaOS_1_cortex_mx_ee_context.inc ****  * Carlos Fernando Meier Martinez
  52:Generated_Source\PSoC5/ErikaOS_1_cortex_mx_ee_context.inc ****  * Hochschule Darmstadt, Germany. 2017.
  53:Generated_Source\PSoC5/ErikaOS_1_cortex_mx_ee_context.inc ****  */
  54:Generated_Source\PSoC5/ErikaOS_1_cortex_mx_ee_context.inc **** 
  55:Generated_Source\PSoC5/ErikaOS_1_cortex_mx_ee_context.inc **** #ifndef __INCLUDE_CPU_CORTEX_MX_EE_CONTEXT__
  56:Generated_Source\PSoC5/ErikaOS_1_cortex_mx_ee_context.inc **** #define __INCLUDE_CPU_CORTEX_MX_EE_CONTEXT__
  57:Generated_Source\PSoC5/ErikaOS_1_cortex_mx_ee_context.inc **** 
  58:Generated_Source\PSoC5/ErikaOS_1_cortex_mx_ee_context.inc **** /*
  59:Generated_Source\PSoC5/ErikaOS_1_cortex_mx_ee_context.inc ****  * Instructions
  60:Generated_Source\PSoC5/ErikaOS_1_cortex_mx_ee_context.inc ****  *
  61:Generated_Source\PSoC5/ErikaOS_1_cortex_mx_ee_context.inc ****  * The monostack part is complete (obviously, the functions to disable/enable
  62:Generated_Source\PSoC5/ErikaOS_1_cortex_mx_ee_context.inc ****  *  interrupts are not included here).  For the multistack part you have to
  63:Generated_Source\PSoC5/ErikaOS_1_cortex_mx_ee_context.inc ****  *  provide two additional things:
  64:Generated_Source\PSoC5/ErikaOS_1_cortex_mx_ee_context.inc ****  *  1. An assembly implementation of EE_std_change_context_multi(); see below.
  65:Generated_Source\PSoC5/ErikaOS_1_cortex_mx_ee_context.inc ****  *  2. A #define directive for EE_hal_active_tos, which is just an alias for the
ARM GAS  C:\Users\DABBIR~1\AppData\Local\Temp\ccRMfF9I.s 			page 5


  66:Generated_Source\PSoC5/ErikaOS_1_cortex_mx_ee_context.inc ****  *  actual architecture-dependent variable.  This variable contains the index of
  67:Generated_Source\PSoC5/ErikaOS_1_cortex_mx_ee_context.inc ****  *  the current stack.
  68:Generated_Source\PSoC5/ErikaOS_1_cortex_mx_ee_context.inc ****  */
  69:Generated_Source\PSoC5/ErikaOS_1_cortex_mx_ee_context.inc **** 
  70:Generated_Source\PSoC5/ErikaOS_1_cortex_mx_ee_context.inc **** /* After a task terminates, the scheduler puts the id of the new task to launch
  71:Generated_Source\PSoC5/ErikaOS_1_cortex_mx_ee_context.inc ****  * or switch to in this variable.  If the is stacked, its id is marked so. */
  72:Generated_Source\PSoC5/ErikaOS_1_cortex_mx_ee_context.inc **** extern EE_TID EE_std_endcycle_next_tid;
  73:Generated_Source\PSoC5/ErikaOS_1_cortex_mx_ee_context.inc **** 
  74:Generated_Source\PSoC5/ErikaOS_1_cortex_mx_ee_context.inc **** /* The multistack version must be implemented in ASM; no standard
  75:Generated_Source\PSoC5/ErikaOS_1_cortex_mx_ee_context.inc ****  * implementation, sorry.  This is the only function that performs context
  76:Generated_Source\PSoC5/ErikaOS_1_cortex_mx_ee_context.inc ****  * switching.  The multistack version doesn't jump to the task body if its TID
  77:Generated_Source\PSoC5/ErikaOS_1_cortex_mx_ee_context.inc ****  * has been maked as stacked.  This is used to switch to a task that has been
  78:Generated_Source\PSoC5/ErikaOS_1_cortex_mx_ee_context.inc ****  * suspend by a previous call to EE_std_change_contex(). */
  79:Generated_Source\PSoC5/ErikaOS_1_cortex_mx_ee_context.inc **** void EE_cortex_mx_change_context(EE_TID tid);
  80:Generated_Source\PSoC5/ErikaOS_1_cortex_mx_ee_context.inc **** /* Pseudo code for EE_std_change_context_multi():
  81:Generated_Source\PSoC5/ErikaOS_1_cortex_mx_ee_context.inc ****      begin:
  82:Generated_Source\PSoC5/ErikaOS_1_cortex_mx_ee_context.inc ****       tos_index = EE_std_thread_tos[tid+1];
  83:Generated_Source\PSoC5/ErikaOS_1_cortex_mx_ee_context.inc ****       if is_not_the_current_stack(tos_index) {
  84:Generated_Source\PSoC5/ErikaOS_1_cortex_mx_ee_context.inc ****           save_caller_saved_registers();
  85:Generated_Source\PSoC5/ErikaOS_1_cortex_mx_ee_context.inc ****           switch_stacks(tos_index);
  86:Generated_Source\PSoC5/ErikaOS_1_cortex_mx_ee_context.inc ****           restore_caller_saved_registers();
  87:Generated_Source\PSoC5/ErikaOS_1_cortex_mx_ee_context.inc ****       }
  88:Generated_Source\PSoC5/ErikaOS_1_cortex_mx_ee_context.inc ****       if (is_not_marked_stacked(tid)) {
  89:Generated_Source\PSoC5/ErikaOS_1_cortex_mx_ee_context.inc ****           tid = EE_std_run_task_code(tid);
  90:Generated_Source\PSoC5/ErikaOS_1_cortex_mx_ee_context.inc ****           goto begin;
  91:Generated_Source\PSoC5/ErikaOS_1_cortex_mx_ee_context.inc ****       }
  92:Generated_Source\PSoC5/ErikaOS_1_cortex_mx_ee_context.inc **** 
  93:Generated_Source\PSoC5/ErikaOS_1_cortex_mx_ee_context.inc ****       Please notice that the "goto begin" is actually a recursive call to
  94:Generated_Source\PSoC5/ErikaOS_1_cortex_mx_ee_context.inc ****       EE_std_change_context_multi(), but in this way there is no stack growing.
  95:Generated_Source\PSoC5/ErikaOS_1_cortex_mx_ee_context.inc ****       
  96:Generated_Source\PSoC5/ErikaOS_1_cortex_mx_ee_context.inc ****       Please notice also that 'tid' must NOT be saved onto the stack before
  97:Generated_Source\PSoC5/ErikaOS_1_cortex_mx_ee_context.inc ****       switching stacks, otherwise when switching from another stack back to the
  98:Generated_Source\PSoC5/ErikaOS_1_cortex_mx_ee_context.inc ****       current one, you would overwrite its value.
  99:Generated_Source\PSoC5/ErikaOS_1_cortex_mx_ee_context.inc **** 
 100:Generated_Source\PSoC5/ErikaOS_1_cortex_mx_ee_context.inc ****       For processors where the return address is saved in a register, that
 101:Generated_Source\PSoC5/ErikaOS_1_cortex_mx_ee_context.inc ****       register must be saved in the stack too.
 102:Generated_Source\PSoC5/ErikaOS_1_cortex_mx_ee_context.inc **** 
 103:Generated_Source\PSoC5/ErikaOS_1_cortex_mx_ee_context.inc ****       switch_stacks() should also update EE_hal_active_tos.
 104:Generated_Source\PSoC5/ErikaOS_1_cortex_mx_ee_context.inc **** */
 105:Generated_Source\PSoC5/ErikaOS_1_cortex_mx_ee_context.inc **** 
 106:Generated_Source\PSoC5/ErikaOS_1_cortex_mx_ee_context.inc **** /* Call a the body of a task */
 107:Generated_Source\PSoC5/ErikaOS_1_cortex_mx_ee_context.inc **** #if defined(__OO_BCC1__) || defined(__OO_BCC2__) || \
 108:Generated_Source\PSoC5/ErikaOS_1_cortex_mx_ee_context.inc ****  defined(__OO_ECC1__) || defined(__OO_ECC2__)
 109:Generated_Source\PSoC5/ErikaOS_1_cortex_mx_ee_context.inc **** #define EE_call_task_body(tid)  EE_oo_thread_stub()
 110:Generated_Source\PSoC5/ErikaOS_1_cortex_mx_ee_context.inc **** #else
 111:Generated_Source\PSoC5/ErikaOS_1_cortex_mx_ee_context.inc **** #define EE_call_task_body(tid)  (((void (*)(void))EE_hal_thread_body[tid])())
 112:Generated_Source\PSoC5/ErikaOS_1_cortex_mx_ee_context.inc **** #endif
 113:Generated_Source\PSoC5/ErikaOS_1_cortex_mx_ee_context.inc **** 
 114:Generated_Source\PSoC5/ErikaOS_1_cortex_mx_ee_context.inc **** 
 115:Generated_Source\PSoC5/ErikaOS_1_cortex_mx_ee_context.inc **** /* Launch a new task, possibly switching to a different stack, clean up the task
 116:Generated_Source\PSoC5/ErikaOS_1_cortex_mx_ee_context.inc ****  * after it ends, and call the scheduler (and switch to other tasks/stacks)
 117:Generated_Source\PSoC5/ErikaOS_1_cortex_mx_ee_context.inc ****  * until there are no more tasks to switch to.  In the multistack version, also
 118:Generated_Source\PSoC5/ErikaOS_1_cortex_mx_ee_context.inc ****  * change the current stack before returning if the scheduler asks for it. */
 119:Generated_Source\PSoC5/ErikaOS_1_cortex_mx_ee_context.inc **** __DECLARE_INLINE__ void EE_hal_ready2stacked(EE_TID tid);
 120:Generated_Source\PSoC5/ErikaOS_1_cortex_mx_ee_context.inc **** 
 121:Generated_Source\PSoC5/ErikaOS_1_cortex_mx_ee_context.inc **** 
 122:Generated_Source\PSoC5/ErikaOS_1_cortex_mx_ee_context.inc **** /* Launch a new task on the current stack, clean up the task after it ends, and
ARM GAS  C:\Users\DABBIR~1\AppData\Local\Temp\ccRMfF9I.s 			page 6


 123:Generated_Source\PSoC5/ErikaOS_1_cortex_mx_ee_context.inc ****  * call the scheduler.  Return the next task to launch, which is "marked as
 124:Generated_Source\PSoC5/ErikaOS_1_cortex_mx_ee_context.inc ****  * stacked" if there is no new task to launch. */
 125:Generated_Source\PSoC5/ErikaOS_1_cortex_mx_ee_context.inc **** EE_TID EE_std_run_task_code(EE_TID tid);
 126:Generated_Source\PSoC5/ErikaOS_1_cortex_mx_ee_context.inc **** 
 127:Generated_Source\PSoC5/ErikaOS_1_cortex_mx_ee_context.inc **** 
 128:Generated_Source\PSoC5/ErikaOS_1_cortex_mx_ee_context.inc **** /*
 129:Generated_Source\PSoC5/ErikaOS_1_cortex_mx_ee_context.inc ****  * Inline implementations
 130:Generated_Source\PSoC5/ErikaOS_1_cortex_mx_ee_context.inc ****  */
 131:Generated_Source\PSoC5/ErikaOS_1_cortex_mx_ee_context.inc **** 
 132:Generated_Source\PSoC5/ErikaOS_1_cortex_mx_ee_context.inc **** 
 133:Generated_Source\PSoC5/ErikaOS_1_cortex_mx_ee_context.inc **** #ifdef __MONO__
 134:Generated_Source\PSoC5/ErikaOS_1_cortex_mx_ee_context.inc **** 
 135:Generated_Source\PSoC5/ErikaOS_1_cortex_mx_ee_context.inc **** /* With monostack, we need only the information that the task is stacked.  We
 136:Generated_Source\PSoC5/ErikaOS_1_cortex_mx_ee_context.inc ****  * don't need to know which task it is, as there is no new stack to switch
 137:Generated_Source\PSoC5/ErikaOS_1_cortex_mx_ee_context.inc ****  * to. */
 138:Generated_Source\PSoC5/ErikaOS_1_cortex_mx_ee_context.inc **** #define EE_std_mark_tid_stacked(tid) ((EE_TID)-1)
 139:Generated_Source\PSoC5/ErikaOS_1_cortex_mx_ee_context.inc **** 
 140:Generated_Source\PSoC5/ErikaOS_1_cortex_mx_ee_context.inc **** #define EE_std_need_context_change(tid) ((tid) >= 0)
 141:Generated_Source\PSoC5/ErikaOS_1_cortex_mx_ee_context.inc **** 
 142:Generated_Source\PSoC5/ErikaOS_1_cortex_mx_ee_context.inc **** #endif /* __MONO__ */
 143:Generated_Source\PSoC5/ErikaOS_1_cortex_mx_ee_context.inc **** 
 144:Generated_Source\PSoC5/ErikaOS_1_cortex_mx_ee_context.inc **** 
 145:Generated_Source\PSoC5/ErikaOS_1_cortex_mx_ee_context.inc **** #ifdef __MULTI__
 146:Generated_Source\PSoC5/ErikaOS_1_cortex_mx_ee_context.inc **** 
 147:Generated_Source\PSoC5/ErikaOS_1_cortex_mx_ee_context.inc **** /* TID_IS_STACKED_MARK must set the most significative bit */
 148:Generated_Source\PSoC5/ErikaOS_1_cortex_mx_ee_context.inc **** #define EE_std_mark_tid_stacked(tid) ((tid) | (EE_TID)TID_IS_STACKED_MARK)
 149:Generated_Source\PSoC5/ErikaOS_1_cortex_mx_ee_context.inc **** 
 150:Generated_Source\PSoC5/ErikaOS_1_cortex_mx_ee_context.inc **** extern int EE_std_need_context_change(EE_TID tid);
 151:Generated_Source\PSoC5/ErikaOS_1_cortex_mx_ee_context.inc **** 
 152:Generated_Source\PSoC5/ErikaOS_1_cortex_mx_ee_context.inc **** __INLINE__ void  EE_hal_stkchange(EE_TID tid)
 153:Generated_Source\PSoC5/ErikaOS_1_cortex_mx_ee_context.inc **** {
 154:Generated_Source\PSoC5/ErikaOS_1_cortex_mx_ee_context.inc ****     EE_cortex_mx_change_context(EE_std_mark_tid_stacked(tid));
 155:Generated_Source\PSoC5/ErikaOS_1_cortex_mx_ee_context.inc **** }
 156:Generated_Source\PSoC5/ErikaOS_1_cortex_mx_ee_context.inc **** 
 157:Generated_Source\PSoC5/ErikaOS_1_cortex_mx_ee_context.inc **** #endif /* __MULTI__ */
 158:Generated_Source\PSoC5/ErikaOS_1_cortex_mx_ee_context.inc **** 
 159:Generated_Source\PSoC5/ErikaOS_1_cortex_mx_ee_context.inc **** 
 160:Generated_Source\PSoC5/ErikaOS_1_cortex_mx_ee_context.inc **** /* The functions below should work for both the monostack and multistack
 161:Generated_Source\PSoC5/ErikaOS_1_cortex_mx_ee_context.inc ****  * versions of the kernel, thanks to the macros defined above.  In the mono
 162:Generated_Source\PSoC5/ErikaOS_1_cortex_mx_ee_context.inc ****  * version, all the stack-related stuff is ignored. */
 163:Generated_Source\PSoC5/ErikaOS_1_cortex_mx_ee_context.inc **** 
 164:Generated_Source\PSoC5/ErikaOS_1_cortex_mx_ee_context.inc **** 
 165:Generated_Source\PSoC5/ErikaOS_1_cortex_mx_ee_context.inc **** __INLINE__ void  EE_hal_ready2stacked(EE_TID tid)
 166:Generated_Source\PSoC5/ErikaOS_1_cortex_mx_ee_context.inc **** {
 167:Generated_Source\PSoC5/ErikaOS_1_cortex_mx_ee_context.inc ****     EE_cortex_mx_change_context(tid);
 168:Generated_Source\PSoC5/ErikaOS_1_cortex_mx_ee_context.inc **** }
 169:Generated_Source\PSoC5/ErikaOS_1_cortex_mx_ee_context.inc **** 
 170:Generated_Source\PSoC5/ErikaOS_1_cortex_mx_ee_context.inc **** 
 171:Generated_Source\PSoC5/ErikaOS_1_cortex_mx_ee_context.inc **** __INLINE__ void  EE_hal_endcycle_ready(EE_TID tid)
 172:Generated_Source\PSoC5/ErikaOS_1_cortex_mx_ee_context.inc **** {
 173:Generated_Source\PSoC5/ErikaOS_1_cortex_mx_ee_context.inc ****     EE_std_endcycle_next_tid = tid;
 174:Generated_Source\PSoC5/ErikaOS_1_cortex_mx_ee_context.inc **** }
 175:Generated_Source\PSoC5/ErikaOS_1_cortex_mx_ee_context.inc **** 
 176:Generated_Source\PSoC5/ErikaOS_1_cortex_mx_ee_context.inc **** 
 177:Generated_Source\PSoC5/ErikaOS_1_cortex_mx_ee_context.inc **** __INLINE__ void  EE_hal_endcycle_stacked(EE_TID tid)
 178:Generated_Source\PSoC5/ErikaOS_1_cortex_mx_ee_context.inc **** {
 179:Generated_Source\PSoC5/ErikaOS_1_cortex_mx_ee_context.inc ****     EE_std_endcycle_next_tid = EE_std_mark_tid_stacked(tid);
ARM GAS  C:\Users\DABBIR~1\AppData\Local\Temp\ccRMfF9I.s 			page 7


  87              		.loc 2 179 0
  88 0016 40F00040 		orr	r0, r0, #-2147483648
  89              	.LVL6:
  90 001a 044B     		ldr	r3, .L10+4
  91 001c 1860     		str	r0, [r3]
  92 001e 08BD     		pop	{r3, pc}
  93              	.LVL7:
  94              	.L7:
  95              	.LBE37:
  96              	.LBE36:
  97              	.LBB38:
  98              	.LBB39:
 173:Generated_Source\PSoC5/ErikaOS_1_cortex_mx_ee_context.inc **** }
  99              		.loc 2 173 0
 100 0020 024B     		ldr	r3, .L10+4
 101 0022 1860     		str	r0, [r3]
 102 0024 08BD     		pop	{r3, pc}
 103              	.L11:
 104 0026 00BF     		.align	2
 105              	.L10:
 106 0028 00000000 		.word	EE_th_waswaiting
 107 002c 00000000 		.word	EE_std_endcycle_next_tid
 108              	.LBE39:
 109              	.LBE38:
 110              		.cfi_endproc
 111              	.LFE61:
 112              		.size	EE_thread_endcycle_next, .-EE_thread_endcycle_next
 113              		.section	.text.EE_thread_end_instance,"ax",%progbits
 114              		.align	2
 115              		.global	EE_thread_end_instance
 116              		.thumb
 117              		.thumb_func
 118              		.type	EE_thread_end_instance, %function
 119              	EE_thread_end_instance:
 120              	.LFB62:
  78:Generated_Source\PSoC5/ErikaOS_1_ee_thendin.c **** #if (__OO_configUSE_TRACE_FACILITY == 1)
  79:Generated_Source\PSoC5/ErikaOS_1_ee_thendin.c ****   traceMOVED_TASK_TO_READY_STATE(EE_stk_queryfirst());
  80:Generated_Source\PSoC5/ErikaOS_1_ee_thendin.c ****   traceTASK_SWITCHED_IN(EE_stk_queryfirst(), EE_th_ready_prio[EE_stk_queryfirst()]);
  81:Generated_Source\PSoC5/ErikaOS_1_ee_thendin.c **** #endif
  82:Generated_Source\PSoC5/ErikaOS_1_ee_thendin.c ****     EE_oo_call_PreTaskHook();
  83:Generated_Source\PSoC5/ErikaOS_1_ee_thendin.c ****     EE_hal_endcycle_stacked(nexttid);
  84:Generated_Source\PSoC5/ErikaOS_1_ee_thendin.c ****   } else {
  85:Generated_Source\PSoC5/ErikaOS_1_ee_thendin.c ****     EE_hal_endcycle_ready(nexttid);
  86:Generated_Source\PSoC5/ErikaOS_1_ee_thendin.c ****   }
  87:Generated_Source\PSoC5/ErikaOS_1_ee_thendin.c ****   /* Remember: after hal_endcycle_XXX there MUST be NOTHING!!! */
  88:Generated_Source\PSoC5/ErikaOS_1_ee_thendin.c **** }
  89:Generated_Source\PSoC5/ErikaOS_1_ee_thendin.c **** #else /* __OO_ECC1__ || __OO_ECC2__ */
  90:Generated_Source\PSoC5/ErikaOS_1_ee_thendin.c **** static void EE_thread_endcycle_next(void)
  91:Generated_Source\PSoC5/ErikaOS_1_ee_thendin.c **** {
  92:Generated_Source\PSoC5/ErikaOS_1_ee_thendin.c ****   EE_hal_endcycle_ready(EE_rq2stk_exchange());
  93:Generated_Source\PSoC5/ErikaOS_1_ee_thendin.c ****   /* Remember: after hal_endcycle_XXX there MUST be NOTHING!!! */
  94:Generated_Source\PSoC5/ErikaOS_1_ee_thendin.c **** }
  95:Generated_Source\PSoC5/ErikaOS_1_ee_thendin.c **** #endif /* __OO_ECC1__ || __OO_ECC2__ */
  96:Generated_Source\PSoC5/ErikaOS_1_ee_thendin.c **** 
  97:Generated_Source\PSoC5/ErikaOS_1_ee_thendin.c **** void EE_thread_end_instance(void)
  98:Generated_Source\PSoC5/ErikaOS_1_ee_thendin.c **** {
 121              		.loc 1 98 0
ARM GAS  C:\Users\DABBIR~1\AppData\Local\Temp\ccRMfF9I.s 			page 8


 122              		.cfi_startproc
 123              		@ args = 0, pretend = 0, frame = 0
 124              		@ frame_needed = 0, uses_anonymous_args = 0
 125 0000 38B5     		push	{r3, r4, r5, lr}
 126              		.cfi_def_cfa_offset 16
 127              		.cfi_offset 3, -16
 128              		.cfi_offset 4, -12
 129              		.cfi_offset 5, -8
 130              		.cfi_offset 14, -4
 131              	.LBB40:
 132              	.LBB41:
 133              		.file 3 "Generated_Source\\PSoC5\\ErikaOS_1_ee_oo_internal.inc"
   1:Generated_Source\PSoC5/ErikaOS_1_ee_oo_internal.inc **** /* ###*B*###
   2:Generated_Source\PSoC5/ErikaOS_1_ee_oo_internal.inc ****  * ERIKA Enterprise - a tiny RTOS for small microcontrollers
   3:Generated_Source\PSoC5/ErikaOS_1_ee_oo_internal.inc ****  *
   4:Generated_Source\PSoC5/ErikaOS_1_ee_oo_internal.inc ****  * Copyright (C) 2002-2008  Evidence Srl
   5:Generated_Source\PSoC5/ErikaOS_1_ee_oo_internal.inc ****  *
   6:Generated_Source\PSoC5/ErikaOS_1_ee_oo_internal.inc ****  * This file is part of ERIKA Enterprise.
   7:Generated_Source\PSoC5/ErikaOS_1_ee_oo_internal.inc ****  *
   8:Generated_Source\PSoC5/ErikaOS_1_ee_oo_internal.inc ****  * ERIKA Enterprise is free software; you can redistribute it
   9:Generated_Source\PSoC5/ErikaOS_1_ee_oo_internal.inc ****  * and/or modify it under the terms of the GNU General Public License
  10:Generated_Source\PSoC5/ErikaOS_1_ee_oo_internal.inc ****  * version 2 as published by the Free Software Foundation, 
  11:Generated_Source\PSoC5/ErikaOS_1_ee_oo_internal.inc ****  * (with a special exception described below).
  12:Generated_Source\PSoC5/ErikaOS_1_ee_oo_internal.inc ****  *
  13:Generated_Source\PSoC5/ErikaOS_1_ee_oo_internal.inc ****  * Linking this code statically or dynamically with other modules is
  14:Generated_Source\PSoC5/ErikaOS_1_ee_oo_internal.inc ****  * making a combined work based on this code.  Thus, the terms and
  15:Generated_Source\PSoC5/ErikaOS_1_ee_oo_internal.inc ****  * conditions of the GNU General Public License cover the whole
  16:Generated_Source\PSoC5/ErikaOS_1_ee_oo_internal.inc ****  * combination.
  17:Generated_Source\PSoC5/ErikaOS_1_ee_oo_internal.inc ****  *
  18:Generated_Source\PSoC5/ErikaOS_1_ee_oo_internal.inc ****  * As a special exception, the copyright holders of this library give you
  19:Generated_Source\PSoC5/ErikaOS_1_ee_oo_internal.inc ****  * permission to link this code with independent modules to produce an
  20:Generated_Source\PSoC5/ErikaOS_1_ee_oo_internal.inc ****  * executable, regardless of the license terms of these independent
  21:Generated_Source\PSoC5/ErikaOS_1_ee_oo_internal.inc ****  * modules, and to copy and distribute the resulting executable under
  22:Generated_Source\PSoC5/ErikaOS_1_ee_oo_internal.inc ****  * terms of your choice, provided that you also meet, for each linked
  23:Generated_Source\PSoC5/ErikaOS_1_ee_oo_internal.inc ****  * independent module, the terms and conditions of the license of that
  24:Generated_Source\PSoC5/ErikaOS_1_ee_oo_internal.inc ****  * module.  An independent module is a module which is not derived from
  25:Generated_Source\PSoC5/ErikaOS_1_ee_oo_internal.inc ****  * or based on this library.  If you modify this code, you may extend
  26:Generated_Source\PSoC5/ErikaOS_1_ee_oo_internal.inc ****  * this exception to your version of the code, but you are not
  27:Generated_Source\PSoC5/ErikaOS_1_ee_oo_internal.inc ****  * obligated to do so.  If you do not wish to do so, delete this
  28:Generated_Source\PSoC5/ErikaOS_1_ee_oo_internal.inc ****  * exception statement from your version.
  29:Generated_Source\PSoC5/ErikaOS_1_ee_oo_internal.inc ****  *
  30:Generated_Source\PSoC5/ErikaOS_1_ee_oo_internal.inc ****  * ERIKA Enterprise is distributed in the hope that it will be
  31:Generated_Source\PSoC5/ErikaOS_1_ee_oo_internal.inc ****  * useful, but WITHOUT ANY WARRANTY; without even the implied warranty
  32:Generated_Source\PSoC5/ErikaOS_1_ee_oo_internal.inc ****  * of MERCHANTABILITY or FITNESS FOR A PARTICULAR PURPOSE.  See the
  33:Generated_Source\PSoC5/ErikaOS_1_ee_oo_internal.inc ****  * GNU General Public License version 2 for more details.
  34:Generated_Source\PSoC5/ErikaOS_1_ee_oo_internal.inc ****  *
  35:Generated_Source\PSoC5/ErikaOS_1_ee_oo_internal.inc ****  * You should have received a copy of the GNU General Public License
  36:Generated_Source\PSoC5/ErikaOS_1_ee_oo_internal.inc ****  * version 2 along with ERIKA Enterprise; if not, write to the
  37:Generated_Source\PSoC5/ErikaOS_1_ee_oo_internal.inc ****  * Free Software Foundation, Inc., 51 Franklin Street, Fifth Floor,
  38:Generated_Source\PSoC5/ErikaOS_1_ee_oo_internal.inc ****  * Boston, MA 02110-1301 USA.
  39:Generated_Source\PSoC5/ErikaOS_1_ee_oo_internal.inc ****  * ###*E*### */
  40:Generated_Source\PSoC5/ErikaOS_1_ee_oo_internal.inc **** 
  41:Generated_Source\PSoC5/ErikaOS_1_ee_oo_internal.inc **** /*
  42:Generated_Source\PSoC5/ErikaOS_1_ee_oo_internal.inc ****  * Author: 2002 Paolo Gai
  43:Generated_Source\PSoC5/ErikaOS_1_ee_oo_internal.inc ****  * CVS: $Id: ee_internal.h,v 1.6 2006/12/03 22:07:50 pj Exp $
  44:Generated_Source\PSoC5/ErikaOS_1_ee_oo_internal.inc ****  */
  45:Generated_Source\PSoC5/ErikaOS_1_ee_oo_internal.inc **** 
ARM GAS  C:\Users\DABBIR~1\AppData\Local\Temp\ccRMfF9I.s 			page 9


  46:Generated_Source\PSoC5/ErikaOS_1_ee_oo_internal.inc **** /*
  47:Generated_Source\PSoC5/ErikaOS_1_ee_oo_internal.inc ****  * PSoC Port and API Generation
  48:Generated_Source\PSoC5/ErikaOS_1_ee_oo_internal.inc ****  * Carlos Fernando Meier Martinez
  49:Generated_Source\PSoC5/ErikaOS_1_ee_oo_internal.inc ****  * Hochschule Darmstadt, Germany. 2017.
  50:Generated_Source\PSoC5/ErikaOS_1_ee_oo_internal.inc ****  */
  51:Generated_Source\PSoC5/ErikaOS_1_ee_oo_internal.inc **** 
  52:Generated_Source\PSoC5/ErikaOS_1_ee_oo_internal.inc **** #ifndef PKG_KERNEL_OO_INC_EE_OO_INTERNAL_H
  53:Generated_Source\PSoC5/ErikaOS_1_ee_oo_internal.inc **** #define PKG_KERNEL_OO_INC_EE_OO_INTERNAL_H
  54:Generated_Source\PSoC5/ErikaOS_1_ee_oo_internal.inc **** 
  55:Generated_Source\PSoC5/ErikaOS_1_ee_oo_internal.inc **** #include "ErikaOS_1_ee_oo_common.inc"
  56:Generated_Source\PSoC5/ErikaOS_1_ee_oo_internal.inc **** #include "ErikaOS_1_ee_oo_intfunc.inc"
  57:Generated_Source\PSoC5/ErikaOS_1_ee_oo_internal.inc **** #include "ErikaOS_1_ee_oo_irq.inc"
  58:Generated_Source\PSoC5/ErikaOS_1_ee_oo_internal.inc **** #if (__OO_configUSE_TRACE_FACILITY == 1)
  59:Generated_Source\PSoC5/ErikaOS_1_ee_oo_internal.inc **** #include "trcKernelPort.h" 
  60:Generated_Source\PSoC5/ErikaOS_1_ee_oo_internal.inc **** #endif
  61:Generated_Source\PSoC5/ErikaOS_1_ee_oo_internal.inc **** /*******************************************************************************
  62:Generated_Source\PSoC5/ErikaOS_1_ee_oo_internal.inc ****  *                    New Error Handling Internal Utilities
  63:Generated_Source\PSoC5/ErikaOS_1_ee_oo_internal.inc ****  ******************************************************************************/
  64:Generated_Source\PSoC5/ErikaOS_1_ee_oo_internal.inc **** 
  65:Generated_Source\PSoC5/ErikaOS_1_ee_oo_internal.inc **** /* Error Parameters Utilities Macros */
  66:Generated_Source\PSoC5/ErikaOS_1_ee_oo_internal.inc **** #define EE_OS_PARAM(param_name)   EE_os_param param_name
  67:Generated_Source\PSoC5/ErikaOS_1_ee_oo_internal.inc **** #define EE_OS_PARAM_VALUE(param_name, param_value)  \
  68:Generated_Source\PSoC5/ErikaOS_1_ee_oo_internal.inc ****   ((param_name).value_param = (param_value))
  69:Generated_Source\PSoC5/ErikaOS_1_ee_oo_internal.inc **** 
  70:Generated_Source\PSoC5/ErikaOS_1_ee_oo_internal.inc **** #define EE_OS_PARAM_REF(param_name, param_field, param_ref) \
  71:Generated_Source\PSoC5/ErikaOS_1_ee_oo_internal.inc ****   ((param_name).param_field = (param_ref))
  72:Generated_Source\PSoC5/ErikaOS_1_ee_oo_internal.inc **** 
  73:Generated_Source\PSoC5/ErikaOS_1_ee_oo_internal.inc **** #ifdef __OO_HAS_ERRORHOOK__
  74:Generated_Source\PSoC5/ErikaOS_1_ee_oo_internal.inc **** /* Error Parameters Data Structure Utilities Macros from user space */
  75:Generated_Source\PSoC5/ErikaOS_1_ee_oo_internal.inc **** #define EE_OS_ERROR_PARAMETERS()  EE_oo_ErrorHook_parameters error_parameters
  76:Generated_Source\PSoC5/ErikaOS_1_ee_oo_internal.inc **** 
  77:Generated_Source\PSoC5/ErikaOS_1_ee_oo_internal.inc **** #define EE_OS_ERROR_PARAMETERS_INIT(param1_in,param2_in,param3_in)  \
  78:Generated_Source\PSoC5/ErikaOS_1_ee_oo_internal.inc ****   EE_oo_ErrorHook_parameters error_parameters = { param1_in, param2_in, \
  79:Generated_Source\PSoC5/ErikaOS_1_ee_oo_internal.inc ****     param3_in }
  80:Generated_Source\PSoC5/ErikaOS_1_ee_oo_internal.inc **** 
  81:Generated_Source\PSoC5/ErikaOS_1_ee_oo_internal.inc **** #define EE_OS_ERROR_PARAMETERS_PARAM1_VALUE(param1_value) \
  82:Generated_Source\PSoC5/ErikaOS_1_ee_oo_internal.inc ****   (error_parameters.param1.value_param = param1_value)
  83:Generated_Source\PSoC5/ErikaOS_1_ee_oo_internal.inc **** #define EE_OS_ERROR_PARAMETERS_PARAM2_VALUE(param2_value) \
  84:Generated_Source\PSoC5/ErikaOS_1_ee_oo_internal.inc ****   (error_parameters.param2.value_param = param2_value)
  85:Generated_Source\PSoC5/ErikaOS_1_ee_oo_internal.inc **** #define EE_OS_ERROR_PARAMETERS_PARAM3_VALUE(param3_value) \
  86:Generated_Source\PSoC5/ErikaOS_1_ee_oo_internal.inc ****   (error_parameters.param3.value_param = param3_value)
  87:Generated_Source\PSoC5/ErikaOS_1_ee_oo_internal.inc **** 
  88:Generated_Source\PSoC5/ErikaOS_1_ee_oo_internal.inc **** #define EE_OS_ERROR_PARAMETERS_PARAM1_REF(param_field,param_ref)  \
  89:Generated_Source\PSoC5/ErikaOS_1_ee_oo_internal.inc ****   (error_parameters.param1.param_field = (param_ref))
  90:Generated_Source\PSoC5/ErikaOS_1_ee_oo_internal.inc **** #define EE_OS_ERROR_PARAMETERS_PARAM2_REF(param_field,param_ref)  \
  91:Generated_Source\PSoC5/ErikaOS_1_ee_oo_internal.inc ****   (error_parameters.param2.param_field = (param_ref))
  92:Generated_Source\PSoC5/ErikaOS_1_ee_oo_internal.inc **** #define EE_OS_ERROR_PARAMETERS_PARAM3_REF(param_field,param_ref)  \
  93:Generated_Source\PSoC5/ErikaOS_1_ee_oo_internal.inc ****   (error_parameters.param3.param_field = (param_ref))
  94:Generated_Source\PSoC5/ErikaOS_1_ee_oo_internal.inc **** #else /* __OO_HAS_ERRORHOOK__ */
  95:Generated_Source\PSoC5/ErikaOS_1_ee_oo_internal.inc **** #define EE_OS_ERROR_PARAMETERS()                                    ((void)0)
  96:Generated_Source\PSoC5/ErikaOS_1_ee_oo_internal.inc **** 
  97:Generated_Source\PSoC5/ErikaOS_1_ee_oo_internal.inc **** #define EE_OS_ERROR_PARAMETERS_INIT(param1_in,param2_in,param3_in)  ((void)0)
  98:Generated_Source\PSoC5/ErikaOS_1_ee_oo_internal.inc **** 
  99:Generated_Source\PSoC5/ErikaOS_1_ee_oo_internal.inc **** #define EE_OS_ERROR_PARAMETERS_PARAM1_VALUE(param1_value)           ((void)0)
 100:Generated_Source\PSoC5/ErikaOS_1_ee_oo_internal.inc **** #define EE_OS_ERROR_PARAMETERS_PARAM2_VALUE(param2_value)           ((void)0)
 101:Generated_Source\PSoC5/ErikaOS_1_ee_oo_internal.inc **** #define EE_OS_ERROR_PARAMETERS_PARAM3_VALUE(param3_value)           ((void)0)
 102:Generated_Source\PSoC5/ErikaOS_1_ee_oo_internal.inc **** 
ARM GAS  C:\Users\DABBIR~1\AppData\Local\Temp\ccRMfF9I.s 			page 10


 103:Generated_Source\PSoC5/ErikaOS_1_ee_oo_internal.inc **** #define EE_OS_ERROR_PARAMETERS_PARAM1_REF(param_field,param_ref)    ((void)0)
 104:Generated_Source\PSoC5/ErikaOS_1_ee_oo_internal.inc **** #define EE_OS_ERROR_PARAMETERS_PARAM2_REF(param_field,param_ref)    ((void)0)
 105:Generated_Source\PSoC5/ErikaOS_1_ee_oo_internal.inc **** #define EE_OS_ERROR_PARAMETERS_PARAM3_REF(param_field,param_ref)    ((void)0)
 106:Generated_Source\PSoC5/ErikaOS_1_ee_oo_internal.inc **** #endif /* __OO_HAS_ERRORHOOK__ */
 107:Generated_Source\PSoC5/ErikaOS_1_ee_oo_internal.inc **** 
 108:Generated_Source\PSoC5/ErikaOS_1_ee_oo_internal.inc **** /* Error Handling */
 109:Generated_Source\PSoC5/ErikaOS_1_ee_oo_internal.inc **** #ifdef __OO_HAS_ERRORHOOK__
 110:Generated_Source\PSoC5/ErikaOS_1_ee_oo_internal.inc **** #ifndef  __OO_ERRORHOOK_NOMACROS__
 111:Generated_Source\PSoC5/ErikaOS_1_ee_oo_internal.inc **** 
 112:Generated_Source\PSoC5/ErikaOS_1_ee_oo_internal.inc **** __INLINE__ void  EE_os_fill_error_data( OSServiceIdType
 113:Generated_Source\PSoC5/ErikaOS_1_ee_oo_internal.inc ****   ServiceID, EE_os_param param1, EE_os_param param2, EE_os_param param3 )
 114:Generated_Source\PSoC5/ErikaOS_1_ee_oo_internal.inc **** {
 115:Generated_Source\PSoC5/ErikaOS_1_ee_oo_internal.inc ****   register EE_oo_ErrorHook_parameters * const
 116:Generated_Source\PSoC5/ErikaOS_1_ee_oo_internal.inc ****     p_errorhook_parameter = EE_oo_get_errorhook_data();
 117:Generated_Source\PSoC5/ErikaOS_1_ee_oo_internal.inc ****   (*EE_oo_get_errorhook_service_id()) = ServiceID;
 118:Generated_Source\PSoC5/ErikaOS_1_ee_oo_internal.inc ****   p_errorhook_parameter->param1 = param1;
 119:Generated_Source\PSoC5/ErikaOS_1_ee_oo_internal.inc ****   p_errorhook_parameter->param2 = param2;
 120:Generated_Source\PSoC5/ErikaOS_1_ee_oo_internal.inc ****   p_errorhook_parameter->param3 = param3;
 121:Generated_Source\PSoC5/ErikaOS_1_ee_oo_internal.inc **** }
 122:Generated_Source\PSoC5/ErikaOS_1_ee_oo_internal.inc **** #else /* !__OO_ERRORHOOK_NOMACROS__ */
 123:Generated_Source\PSoC5/ErikaOS_1_ee_oo_internal.inc **** 
 124:Generated_Source\PSoC5/ErikaOS_1_ee_oo_internal.inc **** #define EE_os_fill_error_data(ServiceID,param1,param2,param3) ((void)0)
 125:Generated_Source\PSoC5/ErikaOS_1_ee_oo_internal.inc **** #endif /* !__OO_ERRORHOOK_NOMACROS__ */
 126:Generated_Source\PSoC5/ErikaOS_1_ee_oo_internal.inc **** 
 127:Generated_Source\PSoC5/ErikaOS_1_ee_oo_internal.inc **** __INLINE__ void  EE_os_notify_error( OSServiceIdType ServiceID,
 128:Generated_Source\PSoC5/ErikaOS_1_ee_oo_internal.inc ****   EE_os_param param1, EE_os_param param2, EE_os_param param3,
 129:Generated_Source\PSoC5/ErikaOS_1_ee_oo_internal.inc ****   StatusType Error )
 130:Generated_Source\PSoC5/ErikaOS_1_ee_oo_internal.inc **** {
 131:Generated_Source\PSoC5/ErikaOS_1_ee_oo_internal.inc ****   EE_ORTI_set_lasterror(Error);
 132:Generated_Source\PSoC5/ErikaOS_1_ee_oo_internal.inc ****   if ( EE_ErrorHook_nested_flag == 0U )
 133:Generated_Source\PSoC5/ErikaOS_1_ee_oo_internal.inc ****   {
 134:Generated_Source\PSoC5/ErikaOS_1_ee_oo_internal.inc ****     EE_os_fill_error_data(ServiceID, param1, param2, param3);
 135:Generated_Source\PSoC5/ErikaOS_1_ee_oo_internal.inc ****     EE_ErrorHook_nested_flag = 1U;
 136:Generated_Source\PSoC5/ErikaOS_1_ee_oo_internal.inc ****     EE_oo_call_ErrorHook(Error);
 137:Generated_Source\PSoC5/ErikaOS_1_ee_oo_internal.inc ****     EE_ErrorHook_nested_flag = 0U;
 138:Generated_Source\PSoC5/ErikaOS_1_ee_oo_internal.inc ****   }
 139:Generated_Source\PSoC5/ErikaOS_1_ee_oo_internal.inc **** }
 140:Generated_Source\PSoC5/ErikaOS_1_ee_oo_internal.inc **** 
 141:Generated_Source\PSoC5/ErikaOS_1_ee_oo_internal.inc **** #ifndef __EE_MEMORY_PROTECTION__
 142:Generated_Source\PSoC5/ErikaOS_1_ee_oo_internal.inc **** __INLINE__ void  EE_os_notify_error_from_us(
 143:Generated_Source\PSoC5/ErikaOS_1_ee_oo_internal.inc ****   OSServiceIdType ServiceID, const EE_oo_ErrorHook_parameters * const
 144:Generated_Source\PSoC5/ErikaOS_1_ee_oo_internal.inc ****     error_parameters_ref, StatusType Error )
 145:Generated_Source\PSoC5/ErikaOS_1_ee_oo_internal.inc **** {
 146:Generated_Source\PSoC5/ErikaOS_1_ee_oo_internal.inc ****   if ( error_parameters_ref != NULL ) {
 147:Generated_Source\PSoC5/ErikaOS_1_ee_oo_internal.inc ****     register EE_FREG const flag = EE_hal_begin_nested_primitive();
 148:Generated_Source\PSoC5/ErikaOS_1_ee_oo_internal.inc ****     EE_os_notify_error(ServiceID, error_parameters_ref->param1,
 149:Generated_Source\PSoC5/ErikaOS_1_ee_oo_internal.inc ****       error_parameters_ref->param2, error_parameters_ref->param3, Error);
 150:Generated_Source\PSoC5/ErikaOS_1_ee_oo_internal.inc ****     EE_hal_end_nested_primitive(flag);
 151:Generated_Source\PSoC5/ErikaOS_1_ee_oo_internal.inc ****   }
 152:Generated_Source\PSoC5/ErikaOS_1_ee_oo_internal.inc **** }
 153:Generated_Source\PSoC5/ErikaOS_1_ee_oo_internal.inc **** #else /* !__EE_MEMORY_PROTECTION__ */
 154:Generated_Source\PSoC5/ErikaOS_1_ee_oo_internal.inc **** /* If MemMap.h support is enabled (i.e. because memory protection): use it */
 155:Generated_Source\PSoC5/ErikaOS_1_ee_oo_internal.inc **** #ifdef EE_SUPPORT_MEMMAP_H
 156:Generated_Source\PSoC5/ErikaOS_1_ee_oo_internal.inc **** /* The following code belong to ERIKA API section ee_api_text */
 157:Generated_Source\PSoC5/ErikaOS_1_ee_oo_internal.inc **** #define API_START_SEC_CODE
 158:Generated_Source\PSoC5/ErikaOS_1_ee_oo_internal.inc **** #include "MemMap.inc"
 159:Generated_Source\PSoC5/ErikaOS_1_ee_oo_internal.inc **** #endif /* EE_SUPPORT_MEMMAP_H */
ARM GAS  C:\Users\DABBIR~1\AppData\Local\Temp\ccRMfF9I.s 			page 11


 160:Generated_Source\PSoC5/ErikaOS_1_ee_oo_internal.inc **** 
 161:Generated_Source\PSoC5/ErikaOS_1_ee_oo_internal.inc **** void EE_os_notify_error_from_us( OSServiceIdType ServiceID,
 162:Generated_Source\PSoC5/ErikaOS_1_ee_oo_internal.inc ****   const EE_oo_ErrorHook_parameters * const error_parameters_ref,
 163:Generated_Source\PSoC5/ErikaOS_1_ee_oo_internal.inc ****   StatusType Error );
 164:Generated_Source\PSoC5/ErikaOS_1_ee_oo_internal.inc **** 
 165:Generated_Source\PSoC5/ErikaOS_1_ee_oo_internal.inc **** #ifdef EE_SUPPORT_MEMMAP_H
 166:Generated_Source\PSoC5/ErikaOS_1_ee_oo_internal.inc **** #define API_STOP_SEC_CODE
 167:Generated_Source\PSoC5/ErikaOS_1_ee_oo_internal.inc **** #include "MemMap.inc"
 168:Generated_Source\PSoC5/ErikaOS_1_ee_oo_internal.inc **** #endif /* EE_SUPPORT_MEMMAP_H */
 169:Generated_Source\PSoC5/ErikaOS_1_ee_oo_internal.inc **** #endif /* !__EE_MEMORY_PROTECTION__ */
 170:Generated_Source\PSoC5/ErikaOS_1_ee_oo_internal.inc **** #else /* __OO_HAS_ERRORHOOK__ */
 171:Generated_Source\PSoC5/ErikaOS_1_ee_oo_internal.inc **** 
 172:Generated_Source\PSoC5/ErikaOS_1_ee_oo_internal.inc **** /* Macro used for remapping to prevent compiler warnings on unused parameters */
 173:Generated_Source\PSoC5/ErikaOS_1_ee_oo_internal.inc **** #define EE_os_notify_error(k,j,x,y,z) EE_os_notify_error_impl(z)
 174:Generated_Source\PSoC5/ErikaOS_1_ee_oo_internal.inc **** 
 175:Generated_Source\PSoC5/ErikaOS_1_ee_oo_internal.inc **** __INLINE__ void  EE_os_notify_error_impl(StatusType Error)
 176:Generated_Source\PSoC5/ErikaOS_1_ee_oo_internal.inc **** {
 177:Generated_Source\PSoC5/ErikaOS_1_ee_oo_internal.inc ****   EE_ORTI_set_lasterror(Error);
 178:Generated_Source\PSoC5/ErikaOS_1_ee_oo_internal.inc **** }
 179:Generated_Source\PSoC5/ErikaOS_1_ee_oo_internal.inc **** 
 180:Generated_Source\PSoC5/ErikaOS_1_ee_oo_internal.inc **** /* Macro used for remapping to prevent compiler warnings on unused parameters */
 181:Generated_Source\PSoC5/ErikaOS_1_ee_oo_internal.inc **** #define EE_os_notify_error_from_us(x,y,z) EE_os_notify_error_from_us_impl(z)
 182:Generated_Source\PSoC5/ErikaOS_1_ee_oo_internal.inc **** 
 183:Generated_Source\PSoC5/ErikaOS_1_ee_oo_internal.inc **** __INLINE__ void  EE_os_notify_error_from_us_impl(
 184:Generated_Source\PSoC5/ErikaOS_1_ee_oo_internal.inc ****   StatusType Error )
 185:Generated_Source\PSoC5/ErikaOS_1_ee_oo_internal.inc **** {
 186:Generated_Source\PSoC5/ErikaOS_1_ee_oo_internal.inc ****   EE_ORTI_set_lasterror(Error);
 187:Generated_Source\PSoC5/ErikaOS_1_ee_oo_internal.inc **** }
 188:Generated_Source\PSoC5/ErikaOS_1_ee_oo_internal.inc **** #endif /* __OO_HAS_ERRORHOOK__ */
 189:Generated_Source\PSoC5/ErikaOS_1_ee_oo_internal.inc **** 
 190:Generated_Source\PSoC5/ErikaOS_1_ee_oo_internal.inc **** /*******************************************************************************
 191:Generated_Source\PSoC5/ErikaOS_1_ee_oo_internal.inc ****  *                  Kernel Critical Section Utility Macros
 192:Generated_Source\PSoC5/ErikaOS_1_ee_oo_internal.inc ****  ******************************************************************************/
 193:Generated_Source\PSoC5/ErikaOS_1_ee_oo_internal.inc **** #ifndef __EE_MEMORY_PROTECTION__
 194:Generated_Source\PSoC5/ErikaOS_1_ee_oo_internal.inc **** 
 195:Generated_Source\PSoC5/ErikaOS_1_ee_oo_internal.inc **** #define EE_OS_DECLARE_CRITICAL_SECTION()  register EE_FREG flag
 196:Generated_Source\PSoC5/ErikaOS_1_ee_oo_internal.inc **** 
 197:Generated_Source\PSoC5/ErikaOS_1_ee_oo_internal.inc **** #define EE_OS_ENTER_CRITICAL_SECTION()          \
 198:Generated_Source\PSoC5/ErikaOS_1_ee_oo_internal.inc ****   do {                                          \
 199:Generated_Source\PSoC5/ErikaOS_1_ee_oo_internal.inc ****     flag = EE_hal_begin_nested_primitive();     \
 200:Generated_Source\PSoC5/ErikaOS_1_ee_oo_internal.inc ****     EE_as_tp_active_pause_and_update_budgets(); \
 201:Generated_Source\PSoC5/ErikaOS_1_ee_oo_internal.inc ****   } while ( 0 )
 202:Generated_Source\PSoC5/ErikaOS_1_ee_oo_internal.inc **** 
 203:Generated_Source\PSoC5/ErikaOS_1_ee_oo_internal.inc **** #define EE_OS_DECLARE_AND_ENTER_CRITICAL_SECTION()  \
 204:Generated_Source\PSoC5/ErikaOS_1_ee_oo_internal.inc ****   EE_OS_DECLARE_CRITICAL_SECTION();                 \
 205:Generated_Source\PSoC5/ErikaOS_1_ee_oo_internal.inc ****   EE_OS_ENTER_CRITICAL_SECTION()
 206:Generated_Source\PSoC5/ErikaOS_1_ee_oo_internal.inc **** 
 207:Generated_Source\PSoC5/ErikaOS_1_ee_oo_internal.inc **** #define EE_OS_EXIT_CRITICAL_SECTION()             \
 208:Generated_Source\PSoC5/ErikaOS_1_ee_oo_internal.inc ****   do {                                            \
 209:Generated_Source\PSoC5/ErikaOS_1_ee_oo_internal.inc ****     EE_as_tp_active_update_budgets_and_restart(); \
 210:Generated_Source\PSoC5/ErikaOS_1_ee_oo_internal.inc ****     EE_hal_end_nested_primitive(flag);            \
 211:Generated_Source\PSoC5/ErikaOS_1_ee_oo_internal.inc ****   } while ( 0 )
 212:Generated_Source\PSoC5/ErikaOS_1_ee_oo_internal.inc **** 
 213:Generated_Source\PSoC5/ErikaOS_1_ee_oo_internal.inc **** #define EE_OS_FOREVER_CRITICAL_SECTION()          \
 214:Generated_Source\PSoC5/ErikaOS_1_ee_oo_internal.inc ****   do {                                            \
 215:Generated_Source\PSoC5/ErikaOS_1_ee_oo_internal.inc ****     EE_hal_disableIRQ();                          \
 216:Generated_Source\PSoC5/ErikaOS_1_ee_oo_internal.inc ****     EE_as_tp_active_pause_and_update_budgets();   \
ARM GAS  C:\Users\DABBIR~1\AppData\Local\Temp\ccRMfF9I.s 			page 12


 217:Generated_Source\PSoC5/ErikaOS_1_ee_oo_internal.inc ****   } while ( 0 )
 218:Generated_Source\PSoC5/ErikaOS_1_ee_oo_internal.inc **** 
 219:Generated_Source\PSoC5/ErikaOS_1_ee_oo_internal.inc **** #else /* !__EE_MEMORY_PROTECTION__ */
 220:Generated_Source\PSoC5/ErikaOS_1_ee_oo_internal.inc **** /* TP in any case have to be handled in Service Implementation. Syscall
 221:Generated_Source\PSoC5/ErikaOS_1_ee_oo_internal.inc ****    mechanism can be implement in C language and, in that case, a function call
 222:Generated_Source\PSoC5/ErikaOS_1_ee_oo_internal.inc ****    cannot be done in syscall handler. */
 223:Generated_Source\PSoC5/ErikaOS_1_ee_oo_internal.inc **** #define EE_OS_DECLARE_CRITICAL_SECTION()            ((void)0)
 224:Generated_Source\PSoC5/ErikaOS_1_ee_oo_internal.inc **** #define EE_OS_ENTER_CRITICAL_SECTION()              \
 225:Generated_Source\PSoC5/ErikaOS_1_ee_oo_internal.inc ****   EE_as_tp_active_pause_and_update_budgets()
 226:Generated_Source\PSoC5/ErikaOS_1_ee_oo_internal.inc **** #define EE_OS_DECLARE_AND_ENTER_CRITICAL_SECTION()  \
 227:Generated_Source\PSoC5/ErikaOS_1_ee_oo_internal.inc ****   EE_as_tp_active_pause_and_update_budgets()
 228:Generated_Source\PSoC5/ErikaOS_1_ee_oo_internal.inc **** #define EE_OS_EXIT_CRITICAL_SECTION()               \
 229:Generated_Source\PSoC5/ErikaOS_1_ee_oo_internal.inc ****   EE_as_tp_active_update_budgets_and_restart()
 230:Generated_Source\PSoC5/ErikaOS_1_ee_oo_internal.inc **** #define EE_OS_FOREVER_CRITICAL_SECTION()			\
 231:Generated_Source\PSoC5/ErikaOS_1_ee_oo_internal.inc ****   EE_as_tp_active_pause_and_update_budgets()
 232:Generated_Source\PSoC5/ErikaOS_1_ee_oo_internal.inc **** #endif /* !__EE_MEMORY_PROTECTION__ */
 233:Generated_Source\PSoC5/ErikaOS_1_ee_oo_internal.inc **** 
 234:Generated_Source\PSoC5/ErikaOS_1_ee_oo_internal.inc **** /* return the first stacked task (the running task) without extracting it 
 235:Generated_Source\PSoC5/ErikaOS_1_ee_oo_internal.inc ****    we suppose that this function can be called ALSO at interrupt ENABLED!!!
 236:Generated_Source\PSoC5/ErikaOS_1_ee_oo_internal.inc ****    (see WaitEvent.c) */
 237:Generated_Source\PSoC5/ErikaOS_1_ee_oo_internal.inc **** #ifndef __PRIVATE_STK_QUERYFIRST__
 238:Generated_Source\PSoC5/ErikaOS_1_ee_oo_internal.inc **** __INLINE__ EE_TID  EE_stk_queryfirst(void)
 239:Generated_Source\PSoC5/ErikaOS_1_ee_oo_internal.inc **** {
 240:Generated_Source\PSoC5/ErikaOS_1_ee_oo_internal.inc ****     return EE_stkfirst;  
 134              		.loc 3 240 0
 135 0002 364B     		ldr	r3, .L23
 136 0004 1C68     		ldr	r4, [r3]
 137              	.LBE41:
 138              	.LBE40:
  99:Generated_Source\PSoC5/ErikaOS_1_ee_thendin.c ****   EE_TID current, rqfirst;
 100:Generated_Source\PSoC5/ErikaOS_1_ee_thendin.c ****   EE_TID ntask;
 101:Generated_Source\PSoC5/ErikaOS_1_ee_thendin.c **** 
 102:Generated_Source\PSoC5/ErikaOS_1_ee_thendin.c ****   current = EE_stk_queryfirst();
 103:Generated_Source\PSoC5/ErikaOS_1_ee_thendin.c **** 
 104:Generated_Source\PSoC5/ErikaOS_1_ee_thendin.c ****   EE_oo_call_PostTaskHook();
 105:Generated_Source\PSoC5/ErikaOS_1_ee_thendin.c **** 
 106:Generated_Source\PSoC5/ErikaOS_1_ee_thendin.c ****   /* [SWS_Os_00473] The Operating System module shall reset a tasks
 107:Generated_Source\PSoC5/ErikaOS_1_ee_thendin.c ****       OsTaskExecutionBudget on a transition to the SUSPENDED or WAITING states.
 108:Generated_Source\PSoC5/ErikaOS_1_ee_thendin.c ****       (SRS_Os_11008) */
 109:Generated_Source\PSoC5/ErikaOS_1_ee_thendin.c ****   /* Reset ALL TP Budgets, just in case */
 110:Generated_Source\PSoC5/ErikaOS_1_ee_thendin.c ****   EE_as_tp_active_reset_budgets();
 111:Generated_Source\PSoC5/ErikaOS_1_ee_thendin.c **** 
 112:Generated_Source\PSoC5/ErikaOS_1_ee_thendin.c ****   /* Reset ISRs counters */
 113:Generated_Source\PSoC5/ErikaOS_1_ee_thendin.c ****   EE_oo_IRQ_disable_count = 0U;
 139              		.loc 1 113 0
 140 0006 0022     		movs	r2, #0
 141 0008 354B     		ldr	r3, .L23+4
 142 000a 1A60     		str	r2, [r3]
 114:Generated_Source\PSoC5/ErikaOS_1_ee_thendin.c **** 
 115:Generated_Source\PSoC5/ErikaOS_1_ee_thendin.c ****   /* Increase the remaining activations...*/
 116:Generated_Source\PSoC5/ErikaOS_1_ee_thendin.c ****   EE_th_rnact[current]++;
 143              		.loc 1 116 0
 144 000c 354A     		ldr	r2, .L23+8
 145 000e 52F82430 		ldr	r3, [r2, r4, lsl #2]
 146 0012 0133     		adds	r3, r3, #1
 147 0014 42F82430 		str	r3, [r2, r4, lsl #2]
 117:Generated_Source\PSoC5/ErikaOS_1_ee_thendin.c **** 
ARM GAS  C:\Users\DABBIR~1\AppData\Local\Temp\ccRMfF9I.s 			page 13


 118:Generated_Source\PSoC5/ErikaOS_1_ee_thendin.c **** #ifndef __OO_NO_CHAINTASK__
 119:Generated_Source\PSoC5/ErikaOS_1_ee_thendin.c ****   /* If we called a ChainTask, 
 120:Generated_Source\PSoC5/ErikaOS_1_ee_thendin.c ****      EE_th_terminate_nextask[current] != NIL */
 121:Generated_Source\PSoC5/ErikaOS_1_ee_thendin.c ****   ntask = EE_th_terminate_nextask[current];
 148              		.loc 1 121 0
 149 0018 334B     		ldr	r3, .L23+12
 150 001a 53F82450 		ldr	r5, [r3, r4, lsl #2]
 151              	.LVL8:
 122:Generated_Source\PSoC5/ErikaOS_1_ee_thendin.c **** #else /* __OO_NO_CHAINTASK__ */
 123:Generated_Source\PSoC5/ErikaOS_1_ee_thendin.c ****   ntask = EE_NIL;
 124:Generated_Source\PSoC5/ErikaOS_1_ee_thendin.c **** #endif  /* __OO_NO_CHAINTASK__ */
 125:Generated_Source\PSoC5/ErikaOS_1_ee_thendin.c **** 
 126:Generated_Source\PSoC5/ErikaOS_1_ee_thendin.c ****   /* The task state switch from STACKED TO READY because it end its
 127:Generated_Source\PSoC5/ErikaOS_1_ee_thendin.c ****    * instance. Note that status=READY and
 128:Generated_Source\PSoC5/ErikaOS_1_ee_thendin.c ****    * rnact==maximum number of pending activations ==>> the task is
 129:Generated_Source\PSoC5/ErikaOS_1_ee_thendin.c ****    * SUSPENDED!!! */
 130:Generated_Source\PSoC5/ErikaOS_1_ee_thendin.c **** #if (defined(__OO_BCC2__)) || (defined(__OO_ECC2__))
 131:Generated_Source\PSoC5/ErikaOS_1_ee_thendin.c ****   if( (1U == EE_thread_rnact_max(current)) || (current == ntask) ) {
 152              		.loc 1 131 0
 153 001e 2046     		mov	r0, r4
 154 0020 FFF7FEFF 		bl	EE_thread_rnact_max
 155              	.LVL9:
 156 0024 0128     		cmp	r0, #1
 157 0026 01D0     		beq	.L13
 158              		.loc 1 131 0 is_stmt 0 discriminator 1
 159 0028 A542     		cmp	r5, r4
 160 002a 04D1     		bne	.L14
 161              	.L13:
 132:Generated_Source\PSoC5/ErikaOS_1_ee_thendin.c ****     EE_th_status[current] = SUSPENDED;
 162              		.loc 1 132 0 is_stmt 1
 163 002c 0322     		movs	r2, #3
 164 002e 2F4B     		ldr	r3, .L23+16
 165 0030 43F82420 		str	r2, [r3, r4, lsl #2]
 166 0034 03E0     		b	.L15
 167              	.L14:
 133:Generated_Source\PSoC5/ErikaOS_1_ee_thendin.c ****   } else {   
 134:Generated_Source\PSoC5/ErikaOS_1_ee_thendin.c ****     EE_th_status[current] = READY;
 168              		.loc 1 134 0
 169 0036 0222     		movs	r2, #2
 170 0038 2C4B     		ldr	r3, .L23+16
 171 003a 43F82420 		str	r2, [r3, r4, lsl #2]
 172              	.L15:
 135:Generated_Source\PSoC5/ErikaOS_1_ee_thendin.c ****   }
 136:Generated_Source\PSoC5/ErikaOS_1_ee_thendin.c **** #else /* __OO_BCC2__ || __OO_ECC2__ */
 137:Generated_Source\PSoC5/ErikaOS_1_ee_thendin.c ****   EE_th_status[current] = SUSPENDED;
 138:Generated_Source\PSoC5/ErikaOS_1_ee_thendin.c **** #endif /* __OO_BCC2__ || __OO_ECC2__ */
 139:Generated_Source\PSoC5/ErikaOS_1_ee_thendin.c **** 
 140:Generated_Source\PSoC5/ErikaOS_1_ee_thendin.c ****   /* Reset the thread priority bit in the system_ceiling */
 141:Generated_Source\PSoC5/ErikaOS_1_ee_thendin.c ****   EE_sys_ceiling &= ~EE_th_dispatch_prio[current];
 173              		.loc 1 141 0
 174 003e 2C4B     		ldr	r3, .L23+20
 175 0040 53F82410 		ldr	r1, [r3, r4, lsl #2]
 176 0044 2B4A     		ldr	r2, .L23+24
 177 0046 1368     		ldr	r3, [r2]
 178 0048 23EA0103 		bic	r3, r3, r1
 179 004c 1360     		str	r3, [r2]
 180              	.LBB42:
ARM GAS  C:\Users\DABBIR~1\AppData\Local\Temp\ccRMfF9I.s 			page 14


 181              	.LBB43:
 241:Generated_Source\PSoC5/ErikaOS_1_ee_oo_internal.inc **** }
 242:Generated_Source\PSoC5/ErikaOS_1_ee_oo_internal.inc **** #endif /* __PRIVATE_STK_QUERYFIRST__ */
 243:Generated_Source\PSoC5/ErikaOS_1_ee_oo_internal.inc **** 
 244:Generated_Source\PSoC5/ErikaOS_1_ee_oo_internal.inc **** /* This function notifies a tick to a hardware counter.
 245:Generated_Source\PSoC5/ErikaOS_1_ee_oo_internal.inc ****    That is, the counter is
 246:Generated_Source\PSoC5/ErikaOS_1_ee_oo_internal.inc ****    incremented by 1.  It must be called into an ISR2 or into a
 247:Generated_Source\PSoC5/ErikaOS_1_ee_oo_internal.inc ****    task notify that the event linked to the counter occurred.
 248:Generated_Source\PSoC5/ErikaOS_1_ee_oo_internal.inc **** 
 249:Generated_Source\PSoC5/ErikaOS_1_ee_oo_internal.inc ****    The function will also implement the notification of expired alarms
 250:Generated_Source\PSoC5/ErikaOS_1_ee_oo_internal.inc ****    (calling an alarm callback, setting an event, or activating a
 251:Generated_Source\PSoC5/ErikaOS_1_ee_oo_internal.inc ****    task).
 252:Generated_Source\PSoC5/ErikaOS_1_ee_oo_internal.inc **** 
 253:Generated_Source\PSoC5/ErikaOS_1_ee_oo_internal.inc ****    The function can be considered atomic, and NO RESCHEDULING will
 254:Generated_Source\PSoC5/ErikaOS_1_ee_oo_internal.inc ****    take place after the execution of this function. To implement the
 255:Generated_Source\PSoC5/ErikaOS_1_ee_oo_internal.inc ****    rescheduling at task level, you can use the Schedule() or the
 256:Generated_Source\PSoC5/ErikaOS_1_ee_oo_internal.inc ****    ForceSchedule() functions just after this notification.
 257:Generated_Source\PSoC5/ErikaOS_1_ee_oo_internal.inc **** 
 258:Generated_Source\PSoC5/ErikaOS_1_ee_oo_internal.inc ****    see also internal.h
 259:Generated_Source\PSoC5/ErikaOS_1_ee_oo_internal.inc **** */
 260:Generated_Source\PSoC5/ErikaOS_1_ee_oo_internal.inc **** #if (!defined(__OO_NO_ALARMS__)) || (defined(EE_AS_SCHEDULETABLES__))
 261:Generated_Source\PSoC5/ErikaOS_1_ee_oo_internal.inc **** 
 262:Generated_Source\PSoC5/ErikaOS_1_ee_oo_internal.inc **** StatusType EE_oo_IncrementCounterHardware(CounterType CounterID);
 263:Generated_Source\PSoC5/ErikaOS_1_ee_oo_internal.inc **** void       EE_oo_IncrementCounterImplementation(CounterType CounterID);
 264:Generated_Source\PSoC5/ErikaOS_1_ee_oo_internal.inc **** 
 265:Generated_Source\PSoC5/ErikaOS_1_ee_oo_internal.inc **** /* kernel internal API */
 266:Generated_Source\PSoC5/ErikaOS_1_ee_oo_internal.inc **** #define IncrementCounterHardware EE_oo_IncrementCounterHardware
 267:Generated_Source\PSoC5/ErikaOS_1_ee_oo_internal.inc **** 
 268:Generated_Source\PSoC5/ErikaOS_1_ee_oo_internal.inc **** /* Helper function (0 as increment means next tick)*/
 269:Generated_Source\PSoC5/ErikaOS_1_ee_oo_internal.inc **** void EE_oo_counter_object_insert( CounterObjectType ObjectID, TickType
 270:Generated_Source\PSoC5/ErikaOS_1_ee_oo_internal.inc ****   increment );
 271:Generated_Source\PSoC5/ErikaOS_1_ee_oo_internal.inc **** 
 272:Generated_Source\PSoC5/ErikaOS_1_ee_oo_internal.inc **** #if defined (EE_COUNTER_OBJECTS_ROM_SIZE)
 273:Generated_Source\PSoC5/ErikaOS_1_ee_oo_internal.inc **** #if (EE_COUNTER_OBJECTS_ROM_SIZE > 0)
 274:Generated_Source\PSoC5/ErikaOS_1_ee_oo_internal.inc **** __INLINE__ void 
 275:Generated_Source\PSoC5/ErikaOS_1_ee_oo_internal.inc ****   EE_oo_handle_abs_counter_object_insertion( CounterObjectType ObjectID,
 276:Generated_Source\PSoC5/ErikaOS_1_ee_oo_internal.inc ****     TickType absstart, TickType abscycle ) 
 277:Generated_Source\PSoC5/ErikaOS_1_ee_oo_internal.inc **** {
 278:Generated_Source\PSoC5/ErikaOS_1_ee_oo_internal.inc ****   /* These are used to evaluate alarm time handling wrap around */
 279:Generated_Source\PSoC5/ErikaOS_1_ee_oo_internal.inc ****   register TickType           alarm_time;
 280:Generated_Source\PSoC5/ErikaOS_1_ee_oo_internal.inc ****   register TickType           start_rel;
 281:Generated_Source\PSoC5/ErikaOS_1_ee_oo_internal.inc ****   register CounterType const  cnt = EE_oo_counter_object_ROM[ObjectID].c;
 282:Generated_Source\PSoC5/ErikaOS_1_ee_oo_internal.inc **** 
 283:Generated_Source\PSoC5/ErikaOS_1_ee_oo_internal.inc ****   /* first, use the alarm and set the cycle */
 284:Generated_Source\PSoC5/ErikaOS_1_ee_oo_internal.inc ****   EE_oo_counter_object_RAM[ObjectID].used = EE_TRUE;
 285:Generated_Source\PSoC5/ErikaOS_1_ee_oo_internal.inc ****   EE_oo_counter_object_RAM[ObjectID].cntcycle = abscycle;
 286:Generated_Source\PSoC5/ErikaOS_1_ee_oo_internal.inc **** 
 287:Generated_Source\PSoC5/ErikaOS_1_ee_oo_internal.inc ****   /* Handling wrap around for alarm time */
 288:Generated_Source\PSoC5/ErikaOS_1_ee_oo_internal.inc ****   start_rel = absstart - EE_counter_RAM[cnt].value;
 289:Generated_Source\PSoC5/ErikaOS_1_ee_oo_internal.inc **** 
 290:Generated_Source\PSoC5/ErikaOS_1_ee_oo_internal.inc ****   /*  When will be here start value will be already checked against counter
 291:Generated_Source\PSoC5/ErikaOS_1_ee_oo_internal.inc ****       max allowed value */
 292:Generated_Source\PSoC5/ErikaOS_1_ee_oo_internal.inc ****   if ( start_rel == 0U ) {
 293:Generated_Source\PSoC5/ErikaOS_1_ee_oo_internal.inc ****     /* start_rel == 0U -> the alarm should start now or next time that counter
 294:Generated_Source\PSoC5/ErikaOS_1_ee_oo_internal.inc ****        has this value. Has been chosen the second option */
 295:Generated_Source\PSoC5/ErikaOS_1_ee_oo_internal.inc ****     alarm_time = EE_counter_ROM[cnt].maxallowedvalue;
 296:Generated_Source\PSoC5/ErikaOS_1_ee_oo_internal.inc ****   } else if ( start_rel < EE_TYPETICK_HALF_VALUE ) {
ARM GAS  C:\Users\DABBIR~1\AppData\Local\Temp\ccRMfF9I.s 			page 15


 297:Generated_Source\PSoC5/ErikaOS_1_ee_oo_internal.inc ****     /* Normal behavior */
 298:Generated_Source\PSoC5/ErikaOS_1_ee_oo_internal.inc ****     alarm_time = start_rel - 1U;
 299:Generated_Source\PSoC5/ErikaOS_1_ee_oo_internal.inc ****   } else {
 300:Generated_Source\PSoC5/ErikaOS_1_ee_oo_internal.inc ****     /* start_rel is "negative" in this case (unsigned wrap around do the
 301:Generated_Source\PSoC5/ErikaOS_1_ee_oo_internal.inc ****        work) */
 302:Generated_Source\PSoC5/ErikaOS_1_ee_oo_internal.inc ****     alarm_time = EE_counter_ROM[cnt].maxallowedvalue + start_rel;
 303:Generated_Source\PSoC5/ErikaOS_1_ee_oo_internal.inc ****   }
 304:Generated_Source\PSoC5/ErikaOS_1_ee_oo_internal.inc **** 
 305:Generated_Source\PSoC5/ErikaOS_1_ee_oo_internal.inc ****   /* Set alarm with a relative amount of time (alarm_time already is a "0 as
 306:Generated_Source\PSoC5/ErikaOS_1_ee_oo_internal.inc ****      next tick" value)*/
 307:Generated_Source\PSoC5/ErikaOS_1_ee_oo_internal.inc ****   EE_oo_counter_object_insert(ObjectID, alarm_time);
 308:Generated_Source\PSoC5/ErikaOS_1_ee_oo_internal.inc **** }
 309:Generated_Source\PSoC5/ErikaOS_1_ee_oo_internal.inc **** 
 310:Generated_Source\PSoC5/ErikaOS_1_ee_oo_internal.inc **** __INLINE__ void 
 311:Generated_Source\PSoC5/ErikaOS_1_ee_oo_internal.inc ****   EE_oo_handle_rel_counter_object_insertion( CounterObjectType ObjectID,
 312:Generated_Source\PSoC5/ErikaOS_1_ee_oo_internal.inc ****     TickType increment, TickType relcycle )
 313:Generated_Source\PSoC5/ErikaOS_1_ee_oo_internal.inc **** {
 314:Generated_Source\PSoC5/ErikaOS_1_ee_oo_internal.inc **** 
 315:Generated_Source\PSoC5/ErikaOS_1_ee_oo_internal.inc ****   /* first, use the alarm and set the cycle */
 316:Generated_Source\PSoC5/ErikaOS_1_ee_oo_internal.inc ****   EE_oo_counter_object_RAM[ObjectID].used = EE_TRUE;
 317:Generated_Source\PSoC5/ErikaOS_1_ee_oo_internal.inc ****   EE_oo_counter_object_RAM[ObjectID].cntcycle = relcycle;
 318:Generated_Source\PSoC5/ErikaOS_1_ee_oo_internal.inc **** 
 319:Generated_Source\PSoC5/ErikaOS_1_ee_oo_internal.inc ****   /* then, insert the task into the delta queue with an increment equal
 320:Generated_Source\PSoC5/ErikaOS_1_ee_oo_internal.inc ****      (increment - 1U) increment equal to 0 means next tick */
 321:Generated_Source\PSoC5/ErikaOS_1_ee_oo_internal.inc ****   EE_oo_counter_object_insert(ObjectID, (increment - 1U));
 322:Generated_Source\PSoC5/ErikaOS_1_ee_oo_internal.inc **** }
 323:Generated_Source\PSoC5/ErikaOS_1_ee_oo_internal.inc **** 
 324:Generated_Source\PSoC5/ErikaOS_1_ee_oo_internal.inc **** /* cancellation */
 325:Generated_Source\PSoC5/ErikaOS_1_ee_oo_internal.inc **** __INLINE__ void  EE_oo_handle_counter_object_cancellation(
 326:Generated_Source\PSoC5/ErikaOS_1_ee_oo_internal.inc ****   CounterObjectType ObjectID )
 327:Generated_Source\PSoC5/ErikaOS_1_ee_oo_internal.inc **** {
 328:Generated_Source\PSoC5/ErikaOS_1_ee_oo_internal.inc ****   register CounterObjectType current, previous;
 329:Generated_Source\PSoC5/ErikaOS_1_ee_oo_internal.inc ****   register CounterType       ct      = EE_oo_counter_object_ROM[ObjectID].c;
 330:Generated_Source\PSoC5/ErikaOS_1_ee_oo_internal.inc **** 
 331:Generated_Source\PSoC5/ErikaOS_1_ee_oo_internal.inc ****   /* to compute the relative value in ticks, we have to follow the counter
 332:Generated_Source\PSoC5/ErikaOS_1_ee_oo_internal.inc ****      delay chain */
 333:Generated_Source\PSoC5/ErikaOS_1_ee_oo_internal.inc ****   current = EE_counter_RAM[ct].first;
 334:Generated_Source\PSoC5/ErikaOS_1_ee_oo_internal.inc **** 
 335:Generated_Source\PSoC5/ErikaOS_1_ee_oo_internal.inc ****   if ( current == ObjectID ) {
 336:Generated_Source\PSoC5/ErikaOS_1_ee_oo_internal.inc ****     /* the alarm is the first one in the delta queue */
 337:Generated_Source\PSoC5/ErikaOS_1_ee_oo_internal.inc ****     EE_counter_RAM[ct].first = EE_oo_counter_object_RAM[ObjectID].next;
 338:Generated_Source\PSoC5/ErikaOS_1_ee_oo_internal.inc ****   } else {
 339:Generated_Source\PSoC5/ErikaOS_1_ee_oo_internal.inc ****     /* the alarm is not the first one in the delta queue */
 340:Generated_Source\PSoC5/ErikaOS_1_ee_oo_internal.inc ****     /* Find it */
 341:Generated_Source\PSoC5/ErikaOS_1_ee_oo_internal.inc ****     do {
 342:Generated_Source\PSoC5/ErikaOS_1_ee_oo_internal.inc ****       previous = current;
 343:Generated_Source\PSoC5/ErikaOS_1_ee_oo_internal.inc ****       current = EE_oo_counter_object_RAM[current].next;
 344:Generated_Source\PSoC5/ErikaOS_1_ee_oo_internal.inc ****     } while ( current != ObjectID );
 345:Generated_Source\PSoC5/ErikaOS_1_ee_oo_internal.inc ****     /* remove it from the queue */
 346:Generated_Source\PSoC5/ErikaOS_1_ee_oo_internal.inc ****     EE_oo_counter_object_RAM[previous].next =
 347:Generated_Source\PSoC5/ErikaOS_1_ee_oo_internal.inc ****       EE_oo_counter_object_RAM[ObjectID].next;
 348:Generated_Source\PSoC5/ErikaOS_1_ee_oo_internal.inc ****   }
 349:Generated_Source\PSoC5/ErikaOS_1_ee_oo_internal.inc ****   /* Adjust delta value */
 350:Generated_Source\PSoC5/ErikaOS_1_ee_oo_internal.inc ****   if ( EE_oo_counter_object_RAM[ObjectID].next != INVALID_COUNTER_OBJECT ) {
 351:Generated_Source\PSoC5/ErikaOS_1_ee_oo_internal.inc ****     EE_oo_counter_object_RAM[EE_oo_counter_object_RAM[ObjectID].next].delta +=
 352:Generated_Source\PSoC5/ErikaOS_1_ee_oo_internal.inc ****       EE_oo_counter_object_RAM[ObjectID].delta;
 353:Generated_Source\PSoC5/ErikaOS_1_ee_oo_internal.inc ****   }
ARM GAS  C:\Users\DABBIR~1\AppData\Local\Temp\ccRMfF9I.s 			page 16


 354:Generated_Source\PSoC5/ErikaOS_1_ee_oo_internal.inc **** 
 355:Generated_Source\PSoC5/ErikaOS_1_ee_oo_internal.inc ****   EE_oo_counter_object_RAM[ObjectID].used = EE_FALSE;
 356:Generated_Source\PSoC5/ErikaOS_1_ee_oo_internal.inc **** }
 357:Generated_Source\PSoC5/ErikaOS_1_ee_oo_internal.inc **** #endif /* EE_COUNTER_OBJECTS_ROM_SIZE */
 358:Generated_Source\PSoC5/ErikaOS_1_ee_oo_internal.inc **** #endif /* EE_COUNTER_OBJECTS_ROM_SIZE > 0 */
 359:Generated_Source\PSoC5/ErikaOS_1_ee_oo_internal.inc **** #endif /* !__OO_NO_ALARMS__ || EE_AS_SCHEDULETABLES__ */
 360:Generated_Source\PSoC5/ErikaOS_1_ee_oo_internal.inc **** 
 361:Generated_Source\PSoC5/ErikaOS_1_ee_oo_internal.inc **** /*************************************************************************
 362:Generated_Source\PSoC5/ErikaOS_1_ee_oo_internal.inc ****  HAL extensions
 363:Generated_Source\PSoC5/ErikaOS_1_ee_oo_internal.inc ****  *************************************************************************/
 364:Generated_Source\PSoC5/ErikaOS_1_ee_oo_internal.inc **** 
 365:Generated_Source\PSoC5/ErikaOS_1_ee_oo_internal.inc ****  /* these are the functions that have been inserted to support tha OO layer
 366:Generated_Source\PSoC5/ErikaOS_1_ee_oo_internal.inc ****     under the EE HAL.
 367:Generated_Source\PSoC5/ErikaOS_1_ee_oo_internal.inc ****     
 368:Generated_Source\PSoC5/ErikaOS_1_ee_oo_internal.inc ****     - all the functions for interrupt handling (13.3)
 369:Generated_Source\PSoC5/ErikaOS_1_ee_oo_internal.inc ****     - EE_hal_begin_nested_primitive
 370:Generated_Source\PSoC5/ErikaOS_1_ee_oo_internal.inc ****       EE_hal_end_nested_primitive 
 371:Generated_Source\PSoC5/ErikaOS_1_ee_oo_internal.inc ****       (for primitives that can be called both into a task and into an ISR2
 372:Generated_Source\PSoC5/ErikaOS_1_ee_oo_internal.inc ****     - EE_hal_terminate_task(EE_TID t)
 373:Generated_Source\PSoC5/ErikaOS_1_ee_oo_internal.inc ****     - EE_hal_terminate_savestk(EE_TID t)
 374:Generated_Source\PSoC5/ErikaOS_1_ee_oo_internal.inc ****       EE_oo_preemption_point() execute task preemption if is needed
 375:Generated_Source\PSoC5/ErikaOS_1_ee_oo_internal.inc ****     - EE_oo_shutdown() if not redefined it does for(;;);
 376:Generated_Source\PSoC5/ErikaOS_1_ee_oo_internal.inc ****     - All the alarm constants listed in 13.6.4
 377:Generated_Source\PSoC5/ErikaOS_1_ee_oo_internal.inc ****  */
 378:Generated_Source\PSoC5/ErikaOS_1_ee_oo_internal.inc **** 
 379:Generated_Source\PSoC5/ErikaOS_1_ee_oo_internal.inc **** 
 380:Generated_Source\PSoC5/ErikaOS_1_ee_oo_internal.inc **** /***************************************************************************
 381:Generated_Source\PSoC5/ErikaOS_1_ee_oo_internal.inc ****  * Internal data structures and functions
 382:Generated_Source\PSoC5/ErikaOS_1_ee_oo_internal.inc ****  ***************************************************************************/
 383:Generated_Source\PSoC5/ErikaOS_1_ee_oo_internal.inc **** 
 384:Generated_Source\PSoC5/ErikaOS_1_ee_oo_internal.inc **** /*
 385:Generated_Source\PSoC5/ErikaOS_1_ee_oo_internal.inc ****     Call Hooks utilities
 386:Generated_Source\PSoC5/ErikaOS_1_ee_oo_internal.inc ****  */
 387:Generated_Source\PSoC5/ErikaOS_1_ee_oo_internal.inc **** 
 388:Generated_Source\PSoC5/ErikaOS_1_ee_oo_internal.inc **** #ifdef __OO_HAS_PRETASKHOOK__
 389:Generated_Source\PSoC5/ErikaOS_1_ee_oo_internal.inc **** __INLINE__ void  EE_oo_call_PreTaskHook(void)
 390:Generated_Source\PSoC5/ErikaOS_1_ee_oo_internal.inc **** {
 391:Generated_Source\PSoC5/ErikaOS_1_ee_oo_internal.inc ****   EE_as_set_execution_context( PreTaskHook_Context );
 392:Generated_Source\PSoC5/ErikaOS_1_ee_oo_internal.inc ****   /* Set the execution context on TASK */
 393:Generated_Source\PSoC5/ErikaOS_1_ee_oo_internal.inc ****   EE_as_set_execution_context( TASK_Context );
 394:Generated_Source\PSoC5/ErikaOS_1_ee_oo_internal.inc **** }
 395:Generated_Source\PSoC5/ErikaOS_1_ee_oo_internal.inc **** 
 396:Generated_Source\PSoC5/ErikaOS_1_ee_oo_internal.inc **** #else /* __OO_HAS_PRETASKHOOK__ */
 397:Generated_Source\PSoC5/ErikaOS_1_ee_oo_internal.inc **** __INLINE__ void  EE_oo_call_PreTaskHook(void)
 398:Generated_Source\PSoC5/ErikaOS_1_ee_oo_internal.inc **** {
 399:Generated_Source\PSoC5/ErikaOS_1_ee_oo_internal.inc ****   /* Set the execution context on TASK */
 400:Generated_Source\PSoC5/ErikaOS_1_ee_oo_internal.inc ****   EE_as_set_execution_context( TASK_Context );
 401:Generated_Source\PSoC5/ErikaOS_1_ee_oo_internal.inc **** }
 402:Generated_Source\PSoC5/ErikaOS_1_ee_oo_internal.inc **** #endif /* __OO_HAS_PRETASKHOOK__ */
 403:Generated_Source\PSoC5/ErikaOS_1_ee_oo_internal.inc **** 
 404:Generated_Source\PSoC5/ErikaOS_1_ee_oo_internal.inc **** #if defined(__OO_HAS_POSTTASKHOOK__)
 405:Generated_Source\PSoC5/ErikaOS_1_ee_oo_internal.inc **** __INLINE__ void  EE_oo_call_PostTaskHook(void)
 406:Generated_Source\PSoC5/ErikaOS_1_ee_oo_internal.inc **** {
 407:Generated_Source\PSoC5/ErikaOS_1_ee_oo_internal.inc ****   EE_as_set_execution_context( PostTaskHook_Context );
 408:Generated_Source\PSoC5/ErikaOS_1_ee_oo_internal.inc **** }
 409:Generated_Source\PSoC5/ErikaOS_1_ee_oo_internal.inc **** #else /* __OO_HAS_POSTTASKHOOK__ */
 410:Generated_Source\PSoC5/ErikaOS_1_ee_oo_internal.inc **** __INLINE__ void  EE_oo_call_PostTaskHook(void) {}
ARM GAS  C:\Users\DABBIR~1\AppData\Local\Temp\ccRMfF9I.s 			page 17


 411:Generated_Source\PSoC5/ErikaOS_1_ee_oo_internal.inc **** #endif /* __OO_HAS_POSTTASKHOOK__ */
 412:Generated_Source\PSoC5/ErikaOS_1_ee_oo_internal.inc **** 
 413:Generated_Source\PSoC5/ErikaOS_1_ee_oo_internal.inc **** 
 414:Generated_Source\PSoC5/ErikaOS_1_ee_oo_internal.inc **** /* StartOS Flag defined inside ee_startos.c to check that the system has correctly started */
 415:Generated_Source\PSoC5/ErikaOS_1_ee_oo_internal.inc **** extern EE_UREG volatile EE_oo_started;
 416:Generated_Source\PSoC5/ErikaOS_1_ee_oo_internal.inc **** 
 417:Generated_Source\PSoC5/ErikaOS_1_ee_oo_internal.inc **** 
 418:Generated_Source\PSoC5/ErikaOS_1_ee_oo_internal.inc **** /* Used to check if we are in disable interrupt error. It return
 419:Generated_Source\PSoC5/ErikaOS_1_ee_oo_internal.inc ****    'signed register type' because usually it is native integer type. */
 420:Generated_Source\PSoC5/ErikaOS_1_ee_oo_internal.inc **** __INLINE__ EE_TYPEBOOL  EE_oo_check_disableint_error(void)
 421:Generated_Source\PSoC5/ErikaOS_1_ee_oo_internal.inc **** {
 422:Generated_Source\PSoC5/ErikaOS_1_ee_oo_internal.inc ****   return ( EE_oo_IRQ_disable_count != 0U );
 423:Generated_Source\PSoC5/ErikaOS_1_ee_oo_internal.inc **** }
 424:Generated_Source\PSoC5/ErikaOS_1_ee_oo_internal.inc **** 
 425:Generated_Source\PSoC5/ErikaOS_1_ee_oo_internal.inc **** #if (defined(__OO_BCC2__)) || (defined(__OO_ECC2__))
 426:Generated_Source\PSoC5/ErikaOS_1_ee_oo_internal.inc **** /* A lookup table to speedup ready queue handling */
 427:Generated_Source\PSoC5/ErikaOS_1_ee_oo_internal.inc **** extern const EE_INT8 EE_rq_lookup[256];
 428:Generated_Source\PSoC5/ErikaOS_1_ee_oo_internal.inc **** /* Lookup functions */
 429:Generated_Source\PSoC5/ErikaOS_1_ee_oo_internal.inc **** #if defined(__OO_ECC2__)
 430:Generated_Source\PSoC5/ErikaOS_1_ee_oo_internal.inc **** __INLINE__ EE_INT8  EE_rq_get_first_not_empty_queue( void )
 431:Generated_Source\PSoC5/ErikaOS_1_ee_oo_internal.inc **** {
 432:Generated_Source\PSoC5/ErikaOS_1_ee_oo_internal.inc ****   /* Lookup at bits 15-9 */
 433:Generated_Source\PSoC5/ErikaOS_1_ee_oo_internal.inc ****   EE_INT8 x = EE_rq_lookup[(EE_rq_bitmask & 0xFF00U) >> 8];
 434:Generated_Source\PSoC5/ErikaOS_1_ee_oo_internal.inc ****   if (x == (EE_INT8)-1) {
 435:Generated_Source\PSoC5/ErikaOS_1_ee_oo_internal.inc ****     x = EE_rq_lookup[EE_rq_bitmask];
 436:Generated_Source\PSoC5/ErikaOS_1_ee_oo_internal.inc ****   } else {
 437:Generated_Source\PSoC5/ErikaOS_1_ee_oo_internal.inc ****     x += (EE_INT8)8;
 438:Generated_Source\PSoC5/ErikaOS_1_ee_oo_internal.inc ****   }
 439:Generated_Source\PSoC5/ErikaOS_1_ee_oo_internal.inc ****   return x;
 440:Generated_Source\PSoC5/ErikaOS_1_ee_oo_internal.inc **** }
 441:Generated_Source\PSoC5/ErikaOS_1_ee_oo_internal.inc **** #else /* __OO_ECC2__ */
 442:Generated_Source\PSoC5/ErikaOS_1_ee_oo_internal.inc **** __INLINE__ EE_INT8  EE_rq_get_first_not_empty_queue( void )
 443:Generated_Source\PSoC5/ErikaOS_1_ee_oo_internal.inc **** {
 444:Generated_Source\PSoC5/ErikaOS_1_ee_oo_internal.inc ****   return EE_rq_lookup[EE_rq_bitmask];
 445:Generated_Source\PSoC5/ErikaOS_1_ee_oo_internal.inc **** }
 446:Generated_Source\PSoC5/ErikaOS_1_ee_oo_internal.inc **** #endif /* __OO_ECC2__ */
 447:Generated_Source\PSoC5/ErikaOS_1_ee_oo_internal.inc **** #endif /* __OO_BCC2__ || __OO_ECC2__ */
 448:Generated_Source\PSoC5/ErikaOS_1_ee_oo_internal.inc **** 
 449:Generated_Source\PSoC5/ErikaOS_1_ee_oo_internal.inc **** /* Internal Queue management functions */
 450:Generated_Source\PSoC5/ErikaOS_1_ee_oo_internal.inc **** 
 451:Generated_Source\PSoC5/ErikaOS_1_ee_oo_internal.inc **** /* return the first ready task without extracting it */
 452:Generated_Source\PSoC5/ErikaOS_1_ee_oo_internal.inc **** #ifndef __PRIVATE_RQ_QUERYFIRST__
 453:Generated_Source\PSoC5/ErikaOS_1_ee_oo_internal.inc **** #if (defined(__OO_BCC1__)) || (defined(__OO_ECC1__))
 454:Generated_Source\PSoC5/ErikaOS_1_ee_oo_internal.inc **** __INLINE__ EE_TID  EE_rq_queryfirst(void)
 455:Generated_Source\PSoC5/ErikaOS_1_ee_oo_internal.inc **** { return EE_rq_first; }
 456:Generated_Source\PSoC5/ErikaOS_1_ee_oo_internal.inc **** #endif
 457:Generated_Source\PSoC5/ErikaOS_1_ee_oo_internal.inc **** 
 458:Generated_Source\PSoC5/ErikaOS_1_ee_oo_internal.inc **** #if (defined(__OO_BCC2__)) || (defined(__OO_ECC2__))
 459:Generated_Source\PSoC5/ErikaOS_1_ee_oo_internal.inc **** EE_TID EE_rq_queryfirst(void);
 460:Generated_Source\PSoC5/ErikaOS_1_ee_oo_internal.inc **** #endif
 461:Generated_Source\PSoC5/ErikaOS_1_ee_oo_internal.inc **** #endif
 462:Generated_Source\PSoC5/ErikaOS_1_ee_oo_internal.inc **** 
 463:Generated_Source\PSoC5/ErikaOS_1_ee_oo_internal.inc **** /* __INLINE__ EE_TID  EE_stk_queryfirst(void) in intfunc.h */
 464:Generated_Source\PSoC5/ErikaOS_1_ee_oo_internal.inc **** 
 465:Generated_Source\PSoC5/ErikaOS_1_ee_oo_internal.inc **** /* Extract the RUNNING task from the stack, and return the new head */
 466:Generated_Source\PSoC5/ErikaOS_1_ee_oo_internal.inc **** #ifndef __PRIVATE_STK_GETFIRST__
 467:Generated_Source\PSoC5/ErikaOS_1_ee_oo_internal.inc **** __INLINE__ EE_TID  EE_stk_getfirst(void)
ARM GAS  C:\Users\DABBIR~1\AppData\Local\Temp\ccRMfF9I.s 			page 18


 468:Generated_Source\PSoC5/ErikaOS_1_ee_oo_internal.inc **** {
 469:Generated_Source\PSoC5/ErikaOS_1_ee_oo_internal.inc ****   return (EE_stkfirst = EE_th_next[EE_stkfirst]);
 182              		.loc 3 469 0
 183 004e 2A4B     		ldr	r3, .L23+28
 184 0050 53F82440 		ldr	r4, [r3, r4, lsl #2]
 185 0054 214B     		ldr	r3, .L23
 186 0056 1C60     		str	r4, [r3]
 187              	.LBE43:
 188              	.LBE42:
 142:Generated_Source\PSoC5/ErikaOS_1_ee_thendin.c **** 
 143:Generated_Source\PSoC5/ErikaOS_1_ee_thendin.c ****   EE_ORTI_set_th_priority(current, 0U);
 144:Generated_Source\PSoC5/ErikaOS_1_ee_thendin.c **** 
 145:Generated_Source\PSoC5/ErikaOS_1_ee_thendin.c ****   /* Extract the TASK from the stk queue and return the new head */
 146:Generated_Source\PSoC5/ErikaOS_1_ee_thendin.c ****   current = EE_stk_getfirst();
 147:Generated_Source\PSoC5/ErikaOS_1_ee_thendin.c **** 
 148:Generated_Source\PSoC5/ErikaOS_1_ee_thendin.c **** #ifndef __OO_NO_CHAINTASK__
 149:Generated_Source\PSoC5/ErikaOS_1_ee_thendin.c ****   /* If we called a ChainTask, 
 150:Generated_Source\PSoC5/ErikaOS_1_ee_thendin.c ****      EE_th_terminate_nextask[current] != NIL */
 151:Generated_Source\PSoC5/ErikaOS_1_ee_thendin.c ****   if ( ntask != EE_NIL ) {
 189              		.loc 1 151 0
 190 0058 B5F1FF3F 		cmp	r5, #-1
 191 005c 0FD0     		beq	.L16
 192              	.LVL10:
 193              	.LBB44:
 194              	.LBB45:
 470:Generated_Source\PSoC5/ErikaOS_1_ee_oo_internal.inc **** }
 471:Generated_Source\PSoC5/ErikaOS_1_ee_oo_internal.inc **** #endif /* __PRIVATE_STK_GETFIRST__ */
 472:Generated_Source\PSoC5/ErikaOS_1_ee_oo_internal.inc **** 
 473:Generated_Source\PSoC5/ErikaOS_1_ee_oo_internal.inc **** /* insert a task into the stack data structures */
 474:Generated_Source\PSoC5/ErikaOS_1_ee_oo_internal.inc **** #ifndef __PRIVATE_STK_INSERTFIRST__
 475:Generated_Source\PSoC5/ErikaOS_1_ee_oo_internal.inc **** __INLINE__ void  EE_stk_insertfirst(EE_TID t)
 476:Generated_Source\PSoC5/ErikaOS_1_ee_oo_internal.inc **** {
 477:Generated_Source\PSoC5/ErikaOS_1_ee_oo_internal.inc ****     EE_th_next[t] = EE_stkfirst;
 478:Generated_Source\PSoC5/ErikaOS_1_ee_oo_internal.inc ****     EE_stkfirst = t;
 479:Generated_Source\PSoC5/ErikaOS_1_ee_oo_internal.inc **** }
 480:Generated_Source\PSoC5/ErikaOS_1_ee_oo_internal.inc **** #endif
 481:Generated_Source\PSoC5/ErikaOS_1_ee_oo_internal.inc **** 
 482:Generated_Source\PSoC5/ErikaOS_1_ee_oo_internal.inc **** /* insert a task into the ready queue */
 483:Generated_Source\PSoC5/ErikaOS_1_ee_oo_internal.inc **** #ifndef __PRIVATE_RQ_INSERT__
 484:Generated_Source\PSoC5/ErikaOS_1_ee_oo_internal.inc **** void EE_rq_insert(EE_TID t);
 485:Generated_Source\PSoC5/ErikaOS_1_ee_oo_internal.inc **** #endif
 486:Generated_Source\PSoC5/ErikaOS_1_ee_oo_internal.inc **** 
 487:Generated_Source\PSoC5/ErikaOS_1_ee_oo_internal.inc **** /* put the first ready task into the stack */
 488:Generated_Source\PSoC5/ErikaOS_1_ee_oo_internal.inc **** #ifndef __PRIVATE_RQ2STK_EXCHANGE__
 489:Generated_Source\PSoC5/ErikaOS_1_ee_oo_internal.inc **** EE_TID EE_rq2stk_exchange(void);
 490:Generated_Source\PSoC5/ErikaOS_1_ee_oo_internal.inc **** #endif
 491:Generated_Source\PSoC5/ErikaOS_1_ee_oo_internal.inc **** 
 492:Generated_Source\PSoC5/ErikaOS_1_ee_oo_internal.inc **** #ifndef __OO_NO_RESOURCES__
 493:Generated_Source\PSoC5/ErikaOS_1_ee_oo_internal.inc **** /*
 494:Generated_Source\PSoC5/ErikaOS_1_ee_oo_internal.inc ****     Method to release all resources locked by a Thread,
 495:Generated_Source\PSoC5/ErikaOS_1_ee_oo_internal.inc ****     used to fulfill AS requirement OS070
 496:Generated_Source\PSoC5/ErikaOS_1_ee_oo_internal.inc ****  */
 497:Generated_Source\PSoC5/ErikaOS_1_ee_oo_internal.inc **** #if ((!defined(__OO_EXTENDED_STATUS__)) && \
 498:Generated_Source\PSoC5/ErikaOS_1_ee_oo_internal.inc ****     (!defined(__PRIVATE_RELEASEALLRESOURCE__))) && \
 499:Generated_Source\PSoC5/ErikaOS_1_ee_oo_internal.inc ****     (!defined(__OO_ISR2_RESOURCES__))
 500:Generated_Source\PSoC5/ErikaOS_1_ee_oo_internal.inc **** __INLINE__ void  EE_oo_release_all_resources(EE_TID tid)
 501:Generated_Source\PSoC5/ErikaOS_1_ee_oo_internal.inc **** {
ARM GAS  C:\Users\DABBIR~1\AppData\Local\Temp\ccRMfF9I.s 			page 19


 502:Generated_Source\PSoC5/ErikaOS_1_ee_oo_internal.inc ****   /* release the internal resource. a EE_TYPEPRIO is a bit mask with only one
 503:Generated_Source\PSoC5/ErikaOS_1_ee_oo_internal.inc ****      bit set to one.
 504:Generated_Source\PSoC5/ErikaOS_1_ee_oo_internal.inc ****      If i subtract one to this I obtain a bit mask with all
 505:Generated_Source\PSoC5/ErikaOS_1_ee_oo_internal.inc ****      ones before the starting one and all zeros after 
 506:Generated_Source\PSoC5/ErikaOS_1_ee_oo_internal.inc ****      (exactly what I want to release resources!)
 507:Generated_Source\PSoC5/ErikaOS_1_ee_oo_internal.inc ****   */
 508:Generated_Source\PSoC5/ErikaOS_1_ee_oo_internal.inc ****   EE_sys_ceiling &= (EE_th_dispatch_prio[tid] - 1U);
 509:Generated_Source\PSoC5/ErikaOS_1_ee_oo_internal.inc **** }
 510:Generated_Source\PSoC5/ErikaOS_1_ee_oo_internal.inc **** #else
 511:Generated_Source\PSoC5/ErikaOS_1_ee_oo_internal.inc **** EE_UREG EE_oo_release_all_resources(EE_TID tid);
 512:Generated_Source\PSoC5/ErikaOS_1_ee_oo_internal.inc **** #endif /* !__OO_EXTENDED_STATUS__ && !__OO_ISR2_RESOURCES__ */
 513:Generated_Source\PSoC5/ErikaOS_1_ee_oo_internal.inc **** #else /* __OO_NO_RESOURCES__ */
 514:Generated_Source\PSoC5/ErikaOS_1_ee_oo_internal.inc **** #define EE_oo_release_all_resources(tid)    ((void)0)
 515:Generated_Source\PSoC5/ErikaOS_1_ee_oo_internal.inc **** #endif /* __OO_NO_RESOURCES__ */
 516:Generated_Source\PSoC5/ErikaOS_1_ee_oo_internal.inc **** 
 517:Generated_Source\PSoC5/ErikaOS_1_ee_oo_internal.inc **** #ifndef __PRIVATE_THREANTERMINATED__
 518:Generated_Source\PSoC5/ErikaOS_1_ee_oo_internal.inc **** /* this the function that will be called if a Task doesn't end calling
 519:Generated_Source\PSoC5/ErikaOS_1_ee_oo_internal.inc ****    TerminateTask */
 520:Generated_Source\PSoC5/ErikaOS_1_ee_oo_internal.inc **** 
 521:Generated_Source\PSoC5/ErikaOS_1_ee_oo_internal.inc **** extern void EE_thread_not_terminated( void );
 522:Generated_Source\PSoC5/ErikaOS_1_ee_oo_internal.inc **** #endif /* __PRIVATE_THREANTERMINATED__ */
 523:Generated_Source\PSoC5/ErikaOS_1_ee_oo_internal.inc **** 
 524:Generated_Source\PSoC5/ErikaOS_1_ee_oo_internal.inc **** /* This call terminates a thread instance. It must be called as the
 525:Generated_Source\PSoC5/ErikaOS_1_ee_oo_internal.inc ****    LAST function call BEFORE the `}' that ends a thread. If the
 526:Generated_Source\PSoC5/ErikaOS_1_ee_oo_internal.inc ****    primitive is not inserted at the end of */
 527:Generated_Source\PSoC5/ErikaOS_1_ee_oo_internal.inc **** #ifndef __PRIVATE_THREAD_END_INSTANCE__
 528:Generated_Source\PSoC5/ErikaOS_1_ee_oo_internal.inc **** void EE_thread_end_instance(void);
 529:Generated_Source\PSoC5/ErikaOS_1_ee_oo_internal.inc **** #endif
 530:Generated_Source\PSoC5/ErikaOS_1_ee_oo_internal.inc **** 
 531:Generated_Source\PSoC5/ErikaOS_1_ee_oo_internal.inc **** #if (defined(__OO_ISR2_RESOURCES__)) || (defined(EE_AS_USER_SPINLOCKS__))
 532:Generated_Source\PSoC5/ErikaOS_1_ee_oo_internal.inc **** /* Index used to give ISR2 Temporary TID value and to access at
 533:Generated_Source\PSoC5/ErikaOS_1_ee_oo_internal.inc ****    EE_isr2_nesting_level array */
 534:Generated_Source\PSoC5/ErikaOS_1_ee_oo_internal.inc **** extern EE_UREG EE_isr2_index;
 535:Generated_Source\PSoC5/ErikaOS_1_ee_oo_internal.inc **** 
 536:Generated_Source\PSoC5/ErikaOS_1_ee_oo_internal.inc **** /* Assign a fake TID to an ISR2 to eventually handle resources clean-up */
 537:Generated_Source\PSoC5/ErikaOS_1_ee_oo_internal.inc **** EE_TID  EE_oo_assign_TID_to_ISR2(void);
 538:Generated_Source\PSoC5/ErikaOS_1_ee_oo_internal.inc **** 
 539:Generated_Source\PSoC5/ErikaOS_1_ee_oo_internal.inc **** /* Get the last assigned fake ISR2 TID */
 540:Generated_Source\PSoC5/ErikaOS_1_ee_oo_internal.inc **** __INLINE__ EE_TID  EE_oo_get_ISR2_TID(void) {
 541:Generated_Source\PSoC5/ErikaOS_1_ee_oo_internal.inc ****   return (EE_isr2_index != EE_UREG_MINUS1)?
 542:Generated_Source\PSoC5/ErikaOS_1_ee_oo_internal.inc ****     (EE_MAX_TASK + (EE_TID)EE_isr2_index): EE_NIL;
 543:Generated_Source\PSoC5/ErikaOS_1_ee_oo_internal.inc **** }
 544:Generated_Source\PSoC5/ErikaOS_1_ee_oo_internal.inc **** #endif /* __OO_ISR2_RESOURCES__ || EE_AS_USER_SPINLOCKS__ */
 545:Generated_Source\PSoC5/ErikaOS_1_ee_oo_internal.inc **** 
 546:Generated_Source\PSoC5/ErikaOS_1_ee_oo_internal.inc **** #if (defined(__OO_ECC1__)) || (defined(__OO_ECC2__))
 547:Generated_Source\PSoC5/ErikaOS_1_ee_oo_internal.inc **** /*
 548:Generated_Source\PSoC5/ErikaOS_1_ee_oo_internal.inc ****     Reset Active Events  THREAD utility method.
 549:Generated_Source\PSoC5/ErikaOS_1_ee_oo_internal.inc **** 
 550:Generated_Source\PSoC5/ErikaOS_1_ee_oo_internal.inc ****     When an extended task is transferred from suspended state
 551:Generated_Source\PSoC5/ErikaOS_1_ee_oo_internal.inc ****     into ready state all its events have to be cleared cleared
 552:Generated_Source\PSoC5/ErikaOS_1_ee_oo_internal.inc **** */
 553:Generated_Source\PSoC5/ErikaOS_1_ee_oo_internal.inc **** __INLINE__ void  EE_oo_reset_th_event_active(TaskType tnotactive)
 554:Generated_Source\PSoC5/ErikaOS_1_ee_oo_internal.inc **** {
 555:Generated_Source\PSoC5/ErikaOS_1_ee_oo_internal.inc ****     EE_th_event_active[tnotactive] = 0U;
 556:Generated_Source\PSoC5/ErikaOS_1_ee_oo_internal.inc **** }
 557:Generated_Source\PSoC5/ErikaOS_1_ee_oo_internal.inc **** 
 558:Generated_Source\PSoC5/ErikaOS_1_ee_oo_internal.inc **** /* 
ARM GAS  C:\Users\DABBIR~1\AppData\Local\Temp\ccRMfF9I.s 			page 20


 559:Generated_Source\PSoC5/ErikaOS_1_ee_oo_internal.inc ****   This method actually do a CONTEXT SWITCH, with the highest priority TASK
 560:Generated_Source\PSoC5/ErikaOS_1_ee_oo_internal.inc **** */
 561:Generated_Source\PSoC5/ErikaOS_1_ee_oo_internal.inc **** #ifdef __MULTI__
 562:Generated_Source\PSoC5/ErikaOS_1_ee_oo_internal.inc **** __INLINE__ void  EE_oo_run_next_task(void)
 563:Generated_Source\PSoC5/ErikaOS_1_ee_oo_internal.inc **** {
 564:Generated_Source\PSoC5/ErikaOS_1_ee_oo_internal.inc ****     register TaskType tmp;
 565:Generated_Source\PSoC5/ErikaOS_1_ee_oo_internal.inc ****     /* swap from ready queue to stack queue */
 566:Generated_Source\PSoC5/ErikaOS_1_ee_oo_internal.inc ****     tmp = EE_rq2stk_exchange();
 567:Generated_Source\PSoC5/ErikaOS_1_ee_oo_internal.inc ****     if ( EE_th_waswaiting[tmp] ) {
 568:Generated_Source\PSoC5/ErikaOS_1_ee_oo_internal.inc ****       /* if the task was waiting switch the context to restart it */
 569:Generated_Source\PSoC5/ErikaOS_1_ee_oo_internal.inc ****       EE_th_waswaiting[tmp] = EE_FALSE;
 570:Generated_Source\PSoC5/ErikaOS_1_ee_oo_internal.inc ****       /* Call the PreTaskHook, here no stub will do that for you */
 571:Generated_Source\PSoC5/ErikaOS_1_ee_oo_internal.inc ****       EE_oo_call_PreTaskHook();
 572:Generated_Source\PSoC5/ErikaOS_1_ee_oo_internal.inc ****       EE_hal_stkchange(tmp);
 573:Generated_Source\PSoC5/ErikaOS_1_ee_oo_internal.inc ****     } else {
 574:Generated_Source\PSoC5/ErikaOS_1_ee_oo_internal.inc ****       /* the next task have to be started */
 575:Generated_Source\PSoC5/ErikaOS_1_ee_oo_internal.inc ****       EE_hal_ready2stacked(tmp);
 576:Generated_Source\PSoC5/ErikaOS_1_ee_oo_internal.inc ****     }
 577:Generated_Source\PSoC5/ErikaOS_1_ee_oo_internal.inc **** }
 578:Generated_Source\PSoC5/ErikaOS_1_ee_oo_internal.inc **** #else
 579:Generated_Source\PSoC5/ErikaOS_1_ee_oo_internal.inc **** __INLINE__ void  EE_oo_run_next_task(void)
 580:Generated_Source\PSoC5/ErikaOS_1_ee_oo_internal.inc **** {
 581:Generated_Source\PSoC5/ErikaOS_1_ee_oo_internal.inc ****     EE_hal_ready2stacked(EE_rq2stk_exchange());
 582:Generated_Source\PSoC5/ErikaOS_1_ee_oo_internal.inc **** }
 583:Generated_Source\PSoC5/ErikaOS_1_ee_oo_internal.inc **** #endif /* __MULTI__ */
 584:Generated_Source\PSoC5/ErikaOS_1_ee_oo_internal.inc **** #else
 585:Generated_Source\PSoC5/ErikaOS_1_ee_oo_internal.inc **** #define EE_oo_reset_th_event_active(TaskID)    ((void) 0)
 586:Generated_Source\PSoC5/ErikaOS_1_ee_oo_internal.inc **** 
 587:Generated_Source\PSoC5/ErikaOS_1_ee_oo_internal.inc **** /* 
 588:Generated_Source\PSoC5/ErikaOS_1_ee_oo_internal.inc ****   This method actually do a CONTEXT SWITCH, with the highest priority TASK
 589:Generated_Source\PSoC5/ErikaOS_1_ee_oo_internal.inc **** */
 590:Generated_Source\PSoC5/ErikaOS_1_ee_oo_internal.inc **** __INLINE__ void  EE_oo_run_next_task(void)
 591:Generated_Source\PSoC5/ErikaOS_1_ee_oo_internal.inc **** {
 592:Generated_Source\PSoC5/ErikaOS_1_ee_oo_internal.inc ****     EE_hal_ready2stacked(EE_rq2stk_exchange());
 593:Generated_Source\PSoC5/ErikaOS_1_ee_oo_internal.inc **** }
 594:Generated_Source\PSoC5/ErikaOS_1_ee_oo_internal.inc **** #endif /* defined(__OO_ECC1__) || defined(__OO_ECC2__) */
 595:Generated_Source\PSoC5/ErikaOS_1_ee_oo_internal.inc **** 
 596:Generated_Source\PSoC5/ErikaOS_1_ee_oo_internal.inc **** 
 597:Generated_Source\PSoC5/ErikaOS_1_ee_oo_internal.inc **** #if (defined(__OO_BCC2__)) || (defined(__OO_ECC2__))
 598:Generated_Source\PSoC5/ErikaOS_1_ee_oo_internal.inc ****   /*
 599:Generated_Source\PSoC5/ErikaOS_1_ee_oo_internal.inc ****     Set THREAD ready utility method.
 600:Generated_Source\PSoC5/ErikaOS_1_ee_oo_internal.inc ****     If the task is BCC2/ECC2 it can be that it is ready or 
 601:Generated_Source\PSoC5/ErikaOS_1_ee_oo_internal.inc ****     running. in that case we have to check and queue it anyway
 602:Generated_Source\PSoC5/ErikaOS_1_ee_oo_internal.inc ****   */
 603:Generated_Source\PSoC5/ErikaOS_1_ee_oo_internal.inc **** __INLINE__ void  EE_oo_set_th_status_ready(TaskType TaskID)
 604:Generated_Source\PSoC5/ErikaOS_1_ee_oo_internal.inc **** {
 605:Generated_Source\PSoC5/ErikaOS_1_ee_oo_internal.inc ****     if (EE_th_status[TaskID] == SUSPENDED) {
 195              		.loc 3 605 0
 196 005e 234B     		ldr	r3, .L23+16
 197 0060 53F82530 		ldr	r3, [r3, r5, lsl #2]
 198 0064 032B     		cmp	r3, #3
 199 0066 07D1     		bne	.L17
 606:Generated_Source\PSoC5/ErikaOS_1_ee_oo_internal.inc ****         EE_th_status[TaskID] = READY;
 200              		.loc 3 606 0
 201 0068 0222     		movs	r2, #2
 202 006a 204B     		ldr	r3, .L23+16
 203 006c 43F82520 		str	r2, [r3, r5, lsl #2]
ARM GAS  C:\Users\DABBIR~1\AppData\Local\Temp\ccRMfF9I.s 			page 21


 204              	.LVL11:
 205              	.LBB46:
 206              	.LBB47:
 555:Generated_Source\PSoC5/ErikaOS_1_ee_oo_internal.inc **** }
 207              		.loc 3 555 0
 208 0070 0022     		movs	r2, #0
 209 0072 224B     		ldr	r3, .L23+32
 210 0074 43F82520 		str	r2, [r3, r5, lsl #2]
 211              	.LVL12:
 212              	.L17:
 213              	.LBE47:
 214              	.LBE46:
 215              	.LBE45:
 216              	.LBE44:
 152:Generated_Source\PSoC5/ErikaOS_1_ee_thendin.c **** 
 153:Generated_Source\PSoC5/ErikaOS_1_ee_thendin.c ****     /* See also activate.c
 154:Generated_Source\PSoC5/ErikaOS_1_ee_thendin.c ****        Put the task in the ready state:
 155:Generated_Source\PSoC5/ErikaOS_1_ee_thendin.c ****        - if the task is basic/BCC1 or extended it can be here only because
 156:Generated_Source\PSoC5/ErikaOS_1_ee_thendin.c ****          it had rnact=1 before the call, and so it is in suspended state
 157:Generated_Source\PSoC5/ErikaOS_1_ee_thendin.c ****        - if the task is basic/BCC2 it can be that it is ready or 
 158:Generated_Source\PSoC5/ErikaOS_1_ee_thendin.c ****          running. In that case we have to check and queue it anyway */
 159:Generated_Source\PSoC5/ErikaOS_1_ee_thendin.c ****     EE_oo_set_th_status_ready(ntask);
 160:Generated_Source\PSoC5/ErikaOS_1_ee_thendin.c **** 
 161:Generated_Source\PSoC5/ErikaOS_1_ee_thendin.c ****     /* insert the task in the ready queue */
 162:Generated_Source\PSoC5/ErikaOS_1_ee_thendin.c ****     EE_rq_insert(ntask);
 217              		.loc 1 162 0
 218 0078 2846     		mov	r0, r5
 219 007a FFF7FEFF 		bl	EE_rq_insert
 220              	.LVL13:
 221              	.L16:
 163:Generated_Source\PSoC5/ErikaOS_1_ee_thendin.c ****   }
 164:Generated_Source\PSoC5/ErikaOS_1_ee_thendin.c **** #endif /* __OO_NO_CHAINTASK__ */
 165:Generated_Source\PSoC5/ErikaOS_1_ee_thendin.c **** 
 166:Generated_Source\PSoC5/ErikaOS_1_ee_thendin.c ****   /* Check if there is to schedule a ready thread or pop a preempted thread */
 167:Generated_Source\PSoC5/ErikaOS_1_ee_thendin.c ****   rqfirst = EE_rq_queryfirst();
 222              		.loc 1 167 0
 223 007e FFF7FEFF 		bl	EE_rq_queryfirst
 224              	.LVL14:
 168:Generated_Source\PSoC5/ErikaOS_1_ee_thendin.c ****   if ( rqfirst == EE_NIL ) {
 225              		.loc 1 168 0
 226 0082 B0F1FF3F 		cmp	r0, #-1
 227 0086 0BD1     		bne	.L18
 169:Generated_Source\PSoC5/ErikaOS_1_ee_thendin.c ****     /* No threads in the ready queue, return to the preempted TASK
 170:Generated_Source\PSoC5/ErikaOS_1_ee_thendin.c ****       (maybe Idle) */
 171:Generated_Source\PSoC5/ErikaOS_1_ee_thendin.c ****     if ( current != EE_NIL ) {
 228              		.loc 1 171 0
 229 0088 B4F1FF3F 		cmp	r4, #-1
 230 008c 03D0     		beq	.L19
 172:Generated_Source\PSoC5/ErikaOS_1_ee_thendin.c ****       EE_th_status[current] = RUNNING;
 231              		.loc 1 172 0
 232 008e 0022     		movs	r2, #0
 233 0090 164B     		ldr	r3, .L23+16
 234 0092 43F82420 		str	r2, [r3, r4, lsl #2]
 235              	.L19:
 236              	.LVL15:
 237              	.LBB48:
 238              	.LBB49:
ARM GAS  C:\Users\DABBIR~1\AppData\Local\Temp\ccRMfF9I.s 			page 22


 239              		.loc 2 179 0
 240 0096 44F00044 		orr	r4, r4, #-2147483648
 241              	.LVL16:
 242 009a 194B     		ldr	r3, .L23+36
 243 009c 1C60     		str	r4, [r3]
 244 009e 38BD     		pop	{r3, r4, r5, pc}
 245              	.LVL17:
 246              	.L18:
 247              	.LBE49:
 248              	.LBE48:
 173:Generated_Source\PSoC5/ErikaOS_1_ee_thendin.c **** #if (__OO_configUSE_TRACE_FACILITY == 1)
 174:Generated_Source\PSoC5/ErikaOS_1_ee_thendin.c ****   traceMOVED_TASK_TO_READY_STATE(EE_stk_queryfirst());
 175:Generated_Source\PSoC5/ErikaOS_1_ee_thendin.c ****   traceTASK_SWITCHED_IN(EE_stk_queryfirst(), EE_th_ready_prio[EE_stk_queryfirst()]);
 176:Generated_Source\PSoC5/ErikaOS_1_ee_thendin.c **** #endif
 177:Generated_Source\PSoC5/ErikaOS_1_ee_thendin.c ****       EE_oo_call_PreTaskHook();
 178:Generated_Source\PSoC5/ErikaOS_1_ee_thendin.c ****       /* Enable the TASK Timing Protection Set */
 179:Generated_Source\PSoC5/ErikaOS_1_ee_thendin.c ****       EE_as_tp_active_set_from_TASK(current);
 180:Generated_Source\PSoC5/ErikaOS_1_ee_thendin.c ****     } else {
 181:Generated_Source\PSoC5/ErikaOS_1_ee_thendin.c ****       /* We are switching back to the Idle loop */
 182:Generated_Source\PSoC5/ErikaOS_1_ee_thendin.c ****       EE_as_set_execution_context( Idle_Context );
 183:Generated_Source\PSoC5/ErikaOS_1_ee_thendin.c ****       EE_as_tp_active_start_idle();
 184:Generated_Source\PSoC5/ErikaOS_1_ee_thendin.c ****     }
 185:Generated_Source\PSoC5/ErikaOS_1_ee_thendin.c ****     EE_hal_endcycle_stacked(current);
 186:Generated_Source\PSoC5/ErikaOS_1_ee_thendin.c ****   } else if ( EE_sys_ceiling >= EE_th_ready_prio[rqfirst] ) {
 249              		.loc 1 186 0
 250 00a0 184B     		ldr	r3, .L23+40
 251 00a2 53F82020 		ldr	r2, [r3, r0, lsl #2]
 252 00a6 134B     		ldr	r3, .L23+24
 253 00a8 1B68     		ldr	r3, [r3]
 254 00aa 9A42     		cmp	r2, r3
 255 00ac 08D8     		bhi	.L21
 187:Generated_Source\PSoC5/ErikaOS_1_ee_thendin.c ****     /* We have to schedule an interrupted thread (already on the stack!!!) */
 188:Generated_Source\PSoC5/ErikaOS_1_ee_thendin.c ****     EE_th_status[current] = RUNNING;
 256              		.loc 1 188 0
 257 00ae 0022     		movs	r2, #0
 258 00b0 0E4B     		ldr	r3, .L23+16
 259 00b2 43F82420 		str	r2, [r3, r4, lsl #2]
 260              	.LVL18:
 261              	.LBB50:
 262              	.LBB51:
 263              		.loc 2 179 0
 264 00b6 44F00044 		orr	r4, r4, #-2147483648
 265              	.LVL19:
 266 00ba 114B     		ldr	r3, .L23+36
 267 00bc 1C60     		str	r4, [r3]
 268 00be 38BD     		pop	{r3, r4, r5, pc}
 269              	.LVL20:
 270              	.L21:
 271              	.LBE51:
 272              	.LBE50:
 189:Generated_Source\PSoC5/ErikaOS_1_ee_thendin.c **** #if (__OO_configUSE_TRACE_FACILITY == 1)
 190:Generated_Source\PSoC5/ErikaOS_1_ee_thendin.c ****   traceMOVED_TASK_TO_READY_STATE(EE_stk_queryfirst());
 191:Generated_Source\PSoC5/ErikaOS_1_ee_thendin.c ****   traceTASK_SWITCHED_IN(EE_stk_queryfirst(), EE_th_ready_prio[EE_stk_queryfirst()]);
 192:Generated_Source\PSoC5/ErikaOS_1_ee_thendin.c **** #endif
 193:Generated_Source\PSoC5/ErikaOS_1_ee_thendin.c ****     EE_oo_call_PreTaskHook();
 194:Generated_Source\PSoC5/ErikaOS_1_ee_thendin.c **** 
 195:Generated_Source\PSoC5/ErikaOS_1_ee_thendin.c ****     /* Enable the TASK Timing Protection Set */
ARM GAS  C:\Users\DABBIR~1\AppData\Local\Temp\ccRMfF9I.s 			page 23


 196:Generated_Source\PSoC5/ErikaOS_1_ee_thendin.c ****     EE_as_tp_active_set_from_TASK(current);
 197:Generated_Source\PSoC5/ErikaOS_1_ee_thendin.c ****     /* Prepare to Context SWITCH, It doesn't do the switch by it self. */
 198:Generated_Source\PSoC5/ErikaOS_1_ee_thendin.c ****     EE_hal_endcycle_stacked(current);
 199:Generated_Source\PSoC5/ErikaOS_1_ee_thendin.c ****   } else {
 200:Generated_Source\PSoC5/ErikaOS_1_ee_thendin.c ****     /* We have to schedule a ready thread */
 201:Generated_Source\PSoC5/ErikaOS_1_ee_thendin.c ****     EE_th_status[rqfirst] = RUNNING;
 273              		.loc 1 201 0
 274 00c0 0021     		movs	r1, #0
 275 00c2 0A4A     		ldr	r2, .L23+16
 276 00c4 42F82010 		str	r1, [r2, r0, lsl #2]
 202:Generated_Source\PSoC5/ErikaOS_1_ee_thendin.c ****     EE_sys_ceiling |= EE_th_dispatch_prio[rqfirst];
 277              		.loc 1 202 0
 278 00c8 094A     		ldr	r2, .L23+20
 279 00ca 52F82020 		ldr	r2, [r2, r0, lsl #2]
 280 00ce 1343     		orrs	r3, r3, r2
 281 00d0 084A     		ldr	r2, .L23+24
 282 00d2 1360     		str	r3, [r2]
 203:Generated_Source\PSoC5/ErikaOS_1_ee_thendin.c **** 
 204:Generated_Source\PSoC5/ErikaOS_1_ee_thendin.c ****     EE_ORTI_set_th_eq_dispatch_prio(rqfirst);
 205:Generated_Source\PSoC5/ErikaOS_1_ee_thendin.c **** 
 206:Generated_Source\PSoC5/ErikaOS_1_ee_thendin.c ****     /* "Press TP start for the first time" for this new activation or release
 207:Generated_Source\PSoC5/ErikaOS_1_ee_thendin.c ****         from wait of the TASK */
 208:Generated_Source\PSoC5/ErikaOS_1_ee_thendin.c ****     EE_as_tp_active_start_on_TASK_stacking(rqfirst);
 209:Generated_Source\PSoC5/ErikaOS_1_ee_thendin.c **** 
 210:Generated_Source\PSoC5/ErikaOS_1_ee_thendin.c ****     /* Prepare to Context SWITCH, It doesn't do the switch by it self. */
 211:Generated_Source\PSoC5/ErikaOS_1_ee_thendin.c ****     EE_thread_endcycle_next();
 283              		.loc 1 211 0
 284 00d4 FFF7FEFF 		bl	EE_thread_endcycle_next
 285              	.LVL21:
 286 00d8 38BD     		pop	{r3, r4, r5, pc}
 287              	.LVL22:
 288              	.L24:
 289 00da 00BF     		.align	2
 290              	.L23:
 291 00dc 00000000 		.word	EE_stkfirst
 292 00e0 00000000 		.word	EE_oo_IRQ_disable_count
 293 00e4 00000000 		.word	EE_th_rnact
 294 00e8 00000000 		.word	EE_th_terminate_nextask
 295 00ec 00000000 		.word	EE_th_status
 296 00f0 00000000 		.word	EE_th_dispatch_prio
 297 00f4 00000000 		.word	EE_sys_ceiling
 298 00f8 00000000 		.word	EE_th_next
 299 00fc 00000000 		.word	EE_th_event_active
 300 0100 00000000 		.word	EE_std_endcycle_next_tid
 301 0104 00000000 		.word	EE_th_ready_prio
 302              		.cfi_endproc
 303              	.LFE62:
 304              		.size	EE_thread_end_instance, .-EE_thread_end_instance
 305              		.text
 306              	.Letext0:
 307              		.file 4 "Generated_Source\\PSoC5\\ErikaOS_1_common_ee_types.inc"
 308              		.file 5 "Generated_Source\\PSoC5\\ErikaOS_1_cortex_mx_ee_cpu.inc"
 309              		.file 6 "Generated_Source\\PSoC5\\ErikaOS_1_ee_oo_common.inc"
 310              		.file 7 "Generated_Source\\PSoC5\\ErikaOS_1_common_ee_primitives.inc"
 311              		.file 8 "Generated_Source\\PSoC5\\ErikaOS_1_ee_oo_intfunc.inc"