ARM GAS  C:\Users\DABBIR~1\AppData\Local\Temp\ccqkDIqs.s 			page 1


   1              		.syntax unified
   2              		.cpu cortex-m3
   3              		.fpu softvfp
   4              		.eabi_attribute 20, 1
   5              		.eabi_attribute 21, 1
   6              		.eabi_attribute 23, 3
   7              		.eabi_attribute 24, 1
   8              		.eabi_attribute 25, 1
   9              		.eabi_attribute 26, 1
  10              		.eabi_attribute 30, 1
  11              		.eabi_attribute 34, 1
  12              		.eabi_attribute 18, 4
  13              		.thumb
  14              		.syntax unified
  15              		.file	"intepreter.c"
  16              		.text
  17              	.Ltext0:
  18              		.cfi_sections	.debug_frame
  19              		.section	.text.inteprete,"ax",%progbits
  20              		.align	2
  21              		.global	inteprete
  22              		.thumb
  23              		.thumb_func
  24              		.type	inteprete, %function
  25              	inteprete:
  26              	.LFB103:
  27              		.file 1 "intepreter.c"
   1:intepreter.c  **** /* ========================================
   2:intepreter.c  ****  *
   3:intepreter.c  ****  * Copyright YOUR COMPANY, THE YEAR
   4:intepreter.c  ****  * All Rights Reserved
   5:intepreter.c  ****  * UNPUBLISHED, LICENSED SOFTWARE.
   6:intepreter.c  ****  *
   7:intepreter.c  ****  * CONFIDENTIAL AND PROPRIETARY INFORMATION
   8:intepreter.c  ****  * WHICH IS THE PROPERTY OF your company.
   9:intepreter.c  ****  *
  10:intepreter.c  ****  * ========================================
  11:intepreter.c  **** */
  12:intepreter.c  **** 
  13:intepreter.c  **** #include "intepreter.h"
  14:intepreter.c  **** 
  15:intepreter.c  **** RC_t inteprete(Drawing_t* drawing, Parser_t* parser){
  28              		.loc 1 15 0
  29              		.cfi_startproc
  30              		@ args = 0, pretend = 0, frame = 8
  31              		@ frame_needed = 0, uses_anonymous_args = 0
  32              	.LVL0:
  33 0000 70B5     		push	{r4, r5, r6, lr}
  34              		.cfi_def_cfa_offset 16
  35              		.cfi_offset 4, -16
  36              		.cfi_offset 5, -12
  37              		.cfi_offset 6, -8
  38              		.cfi_offset 14, -4
  39 0002 82B0     		sub	sp, sp, #8
  40              		.cfi_def_cfa_offset 24
  41 0004 0446     		mov	r4, r0
  42 0006 0E46     		mov	r6, r1
ARM GAS  C:\Users\DABBIR~1\AppData\Local\Temp\ccqkDIqs.s 			page 2


  16:intepreter.c  ****     drawing->size = 0;
  43              		.loc 1 16 0
  44 0008 0023     		movs	r3, #0
  45 000a 8367     		str	r3, [r0, #120]
  17:intepreter.c  ****     Drawer_t drawer;
  18:intepreter.c  ****     
  19:intepreter.c  ****         // Go through the parser and get the next drawing command
  20:intepreter.c  ****         while (!(DRAWER_getNextDrawCommand(&drawer, parser)))
  46              		.loc 1 20 0
  47 000c 0EE0     		b	.L2
  48              	.LVL1:
  49              	.L4:
  21:intepreter.c  ****         {
  22:intepreter.c  ****             // assign drawing to drawer elemnt
  23:intepreter.c  ****             drawing->drawer[drawing->size] = drawer;
  50              		.loc 1 23 0
  51 000e A36F     		ldr	r3, [r4, #120]
  52 0010 03EB4302 		add	r2, r3, r3, lsl #1
  53 0014 5100     		lsls	r1, r2, #1
  54 0016 6518     		adds	r5, r4, r1
  55 0018 02AA     		add	r2, sp, #8
  56 001a 52F8080D 		ldr	r0, [r2, #-8]!	@ unaligned
  57 001e 6050     		str	r0, [r4, r1]	@ unaligned
  58 0020 9288     		ldrh	r2, [r2, #4]	@ unaligned
  59 0022 AA80     		strh	r2, [r5, #4]	@ unaligned
  24:intepreter.c  ****             drawing->size = drawing->size + 1; 
  60              		.loc 1 24 0
  61 0024 0133     		adds	r3, r3, #1
  62 0026 A367     		str	r3, [r4, #120]
  25:intepreter.c  ****             // If 20 drawings receives return
  26:intepreter.c  ****             if (drawing->size >= 20){
  63              		.loc 1 26 0
  64 0028 132B     		cmp	r3, #19
  65 002a 07DC     		bgt	.L5
  66              	.L2:
  20:intepreter.c  ****         {
  67              		.loc 1 20 0
  68 002c 3146     		mov	r1, r6
  69 002e 6846     		mov	r0, sp
  70 0030 FFF7FEFF 		bl	DRAWER_getNextDrawCommand
  71              	.LVL2:
  72 0034 0028     		cmp	r0, #0
  73 0036 EAD0     		beq	.L4
  27:intepreter.c  ****                 return RC_ERROR_BUFFER_FULL;
  28:intepreter.c  ****             }
  29:intepreter.c  ****         }
  30:intepreter.c  **** 
  31:intepreter.c  ****         return RC_SUCCESS;
  74              		.loc 1 31 0
  75 0038 0020     		movs	r0, #0
  76 003a 01E0     		b	.L3
  77              	.L5:
  27:intepreter.c  ****                 return RC_ERROR_BUFFER_FULL;
  78              		.loc 1 27 0
  79 003c 6FF00700 		mvn	r0, #7
  80              	.L3:
  32:intepreter.c  **** }
ARM GAS  C:\Users\DABBIR~1\AppData\Local\Temp\ccqkDIqs.s 			page 3


  81              		.loc 1 32 0
  82 0040 02B0     		add	sp, sp, #8
  83              		.cfi_def_cfa_offset 16
  84              		@ sp needed
  85 0042 70BD     		pop	{r4, r5, r6, pc}
  86              		.cfi_endproc
  87              	.LFE103:
  88              		.size	inteprete, .-inteprete
  89              		.text
  90              	.Letext0:
  91              		.file 2 ".\\source\\bsw/global.h"
  92              		.file 3 "c:\\program files (x86)\\cypress\\psoc creator\\4.4\\psoc creator\\import\\gnu\\arm\\5.4.
  93              		.file 4 "c:\\program files (x86)\\cypress\\psoc creator\\4.4\\psoc creator\\import\\gnu\\arm\\5.4.
  94              		.file 5 "Generated_Source\\PSoC5/ErikaOS_1_common_ee_types.inc"
  95              		.file 6 "Generated_Source\\PSoC5/ErikaOS_1_cortex_mx_ee_cpu.inc"
  96              		.file 7 ".\\source\\bsw/jsmn.h"
  97              		.file 8 ".\\source\\bsw/parser.h"
  98              		.file 9 ".\\source\\bsw\\tft/tft.h"
  99              		.file 10 ".\\source\\bsw/drawer.h"
 100              		.file 11 "intepreter.h"
 101              		.file 12 "Generated_Source\\PSoC5/ErikaOS_1_ee_oo_intfunc.inc"
 102              		.file 13 "Generated_Source\\PSoC5/ErikaOS_1_cortex_mx_ee_context.inc"
 103              		.file 14 "Generated_Source\\PSoC5/ErikaOS_1_common_ee_primitives.inc"
 104              		.file 15 "Generated_Source\\PSoC5/core_cm3.h"