ARM GAS  C:\Users\DABBIR~1\AppData\Local\Temp\ccmSTfDi.s 			page 1


   1              		.syntax unified
   2              		.cpu cortex-m3
   3              		.fpu softvfp
   4              		.eabi_attribute 20, 1
   5              		.eabi_attribute 21, 1
   6              		.eabi_attribute 23, 3
   7              		.eabi_attribute 24, 1
   8              		.eabi_attribute 25, 1
   9              		.eabi_attribute 26, 1
  10              		.eabi_attribute 30, 1
  11              		.eabi_attribute 34, 1
  12              		.eabi_attribute 18, 4
  13              		.thumb
  14              		.syntax unified
  15              		.file	"messagebox.c"
  16              		.text
  17              	.Ltext0:
  18              		.cfi_sections	.debug_frame
  19              		.section	.text.messagebox_init,"ax",%progbits
  20              		.align	2
  21              		.global	messagebox_init
  22              		.thumb
  23              		.thumb_func
  24              		.type	messagebox_init, %function
  25              	messagebox_init:
  26              	.LFB102:
  27              		.file 1 "messagebox.c"
   1:messagebox.c  **** /* ========================================
   2:messagebox.c  ****  *
   3:messagebox.c  ****  * Copyright YOUR COMPANY, THE YEAR
   4:messagebox.c  ****  * All Rights Reserved
   5:messagebox.c  ****  * UNPUBLISHED, LICENSED SOFTWARE.
   6:messagebox.c  ****  *
   7:messagebox.c  ****  * CONFIDENTIAL AND PROPRIETARY INFORMATION
   8:messagebox.c  ****  * WHICH IS THE PROPERTY OF your company.
   9:messagebox.c  ****  *
  10:messagebox.c  ****  * ========================================
  11:messagebox.c  **** */
  12:messagebox.c  **** #include "messagebox.h"
  13:messagebox.c  **** 
  14:messagebox.c  **** RC_t messagebox_init(messagebox_t* messagebox, uint16_t size, EventMaskType eventMaskType, TaskType
  28              		.loc 1 14 0
  29              		.cfi_startproc
  30              		@ args = 0, pretend = 0, frame = 0
  31              		@ frame_needed = 0, uses_anonymous_args = 0
  32              		@ link register save eliminated.
  33              	.LVL0:
  15:messagebox.c  ****     // Initiliaze attributes
  16:messagebox.c  ****     messagebox->m_size = size;
  34              		.loc 1 16 0
  35 0000 0181     		strh	r1, [r0, #8]	@ movhi
  17:messagebox.c  ****     messagebox->m_ev = eventMaskType; 
  36              		.loc 1 17 0
  37 0002 0260     		str	r2, [r0]
  18:messagebox.c  ****     messagebox->m_task = taskType; 
  38              		.loc 1 18 0
  39 0004 4360     		str	r3, [r0, #4]
ARM GAS  C:\Users\DABBIR~1\AppData\Local\Temp\ccmSTfDi.s 			page 2


  19:messagebox.c  ****     messagebox->filllevel = 0; 
  40              		.loc 1 19 0
  41 0006 0023     		movs	r3, #0
  42              	.LVL1:
  43 0008 C381     		strh	r3, [r0, #14]	@ movhi
  20:messagebox.c  ****     messagebox->read_idx = 0; 
  44              		.loc 1 20 0
  45 000a 4381     		strh	r3, [r0, #10]	@ movhi
  21:messagebox.c  ****     messagebox->write_idx = 0; 
  46              		.loc 1 21 0
  47 000c 8381     		strh	r3, [r0, #12]	@ movhi
  22:messagebox.c  ****     
  23:messagebox.c  ****     return RC_SUCCESS; 
  24:messagebox.c  **** }
  48              		.loc 1 24 0
  49 000e 1846     		mov	r0, r3
  50              	.LVL2:
  51 0010 7047     		bx	lr
  52              		.cfi_endproc
  53              	.LFE102:
  54              		.size	messagebox_init, .-messagebox_init
  55 0012 00BF     		.section	.text.messagebox_send,"ax",%progbits
  56              		.align	2
  57              		.global	messagebox_send
  58              		.thumb
  59              		.thumb_func
  60              		.type	messagebox_send, %function
  61              	messagebox_send:
  62              	.LFB103:
  25:messagebox.c  **** 
  26:messagebox.c  **** RC_t messagebox_send(messagebox_t* messagebox, void* data, uint16_t size){
  63              		.loc 1 26 0
  64              		.cfi_startproc
  65              		@ args = 0, pretend = 0, frame = 0
  66              		@ frame_needed = 0, uses_anonymous_args = 0
  67              	.LVL3:
  68 0000 F8B5     		push	{r3, r4, r5, r6, r7, lr}
  69              		.cfi_def_cfa_offset 24
  70              		.cfi_offset 3, -24
  71              		.cfi_offset 4, -20
  72              		.cfi_offset 5, -16
  73              		.cfi_offset 6, -12
  74              		.cfi_offset 7, -8
  75              		.cfi_offset 14, -4
  27:messagebox.c  ****     // Check size
  28:messagebox.c  ****     if(messagebox->m_size >= POSTBOX_SIZE){
  76              		.loc 1 28 0
  77 0002 0389     		ldrh	r3, [r0, #8]
  78 0004 092B     		cmp	r3, #9
  79 0006 2BD8     		bhi	.L6
  80 0008 1546     		mov	r5, r2
  81 000a 0E46     		mov	r6, r1
  82 000c 0746     		mov	r7, r0
  29:messagebox.c  ****         //UART_LOG_PutString("MESSAGEBOX SEND FAILED!"); 
  30:messagebox.c  ****         return RC_ERROR_BUFFER_FULL; 
  31:messagebox.c  ****     }
  32:messagebox.c  ****     
ARM GAS  C:\Users\DABBIR~1\AppData\Local\Temp\ccmSTfDi.s 			page 3


  33:messagebox.c  ****     // Allocate memory
  34:messagebox.c  ****     void* pMalloc = malloc(size * sizeof(uint8_t));
  83              		.loc 1 34 0
  84 000e 1046     		mov	r0, r2
  85              	.LVL4:
  86 0010 FFF7FEFF 		bl	malloc
  87              	.LVL5:
  35:messagebox.c  ****     
  36:messagebox.c  ****     // Return if not successful
  37:messagebox.c  ****     if(pMalloc == NULL){
  88              		.loc 1 37 0
  89 0014 0246     		mov	r2, r0
  90 0016 30B3     		cbz	r0, .L7
  38:messagebox.c  ****         //UART_LOG_PutString("MESSAGEBOX SEND FAILED!"); 
  39:messagebox.c  ****         return RC_ERROR_MEMORY; 
  40:messagebox.c  ****     }
  41:messagebox.c  ****     
  42:messagebox.c  ****     // Write pointer to Buffer of message
  43:messagebox.c  ****     messagebox->message[messagebox->write_idx].m_pBuffer = pMalloc;
  91              		.loc 1 43 0
  92 0018 BB89     		ldrh	r3, [r7, #12]
  93 001a 0233     		adds	r3, r3, #2
  94 001c 07EBC303 		add	r3, r7, r3, lsl #3
  95 0020 5860     		str	r0, [r3, #4]
  96              	.LVL6:
  97              	.LBB2:
  44:messagebox.c  ****     
  45:messagebox.c  ****     // Cast the pointers
  46:messagebox.c  ****     uint8_t *castedPointer = (uint8_t*)data;
  47:messagebox.c  ****     uint8_t *castedMpBuffer = (uint8_t*)messagebox->message[messagebox->write_idx].m_pBuffer;
  48:messagebox.c  ****     
  49:messagebox.c  ****     // Write data into m_pBuffer
  50:messagebox.c  ****     for (int it_size = 0; it_size< size; it_size++)
  98              		.loc 1 50 0
  99 0022 0023     		movs	r3, #0
 100 0024 02E0     		b	.L4
 101              	.LVL7:
 102              	.L5:
  51:messagebox.c  ****     {
  52:messagebox.c  ****         castedMpBuffer[it_size] = castedPointer[it_size];
 103              		.loc 1 52 0 discriminator 3
 104 0026 F45C     		ldrb	r4, [r6, r3]	@ zero_extendqisi2
 105 0028 D454     		strb	r4, [r2, r3]
  50:messagebox.c  ****     {
 106              		.loc 1 50 0 discriminator 3
 107 002a 0133     		adds	r3, r3, #1
 108              	.LVL8:
 109              	.L4:
  50:messagebox.c  ****     {
 110              		.loc 1 50 0 is_stmt 0 discriminator 1
 111 002c AB42     		cmp	r3, r5
 112 002e FADB     		blt	.L5
 113              	.LBE2:
  53:messagebox.c  ****     }
  54:messagebox.c  ****     
  55:messagebox.c  ****     // Increment size and write index
  56:messagebox.c  ****     messagebox->message[messagebox->write_idx].m_size = size;
ARM GAS  C:\Users\DABBIR~1\AppData\Local\Temp\ccmSTfDi.s 			page 4


 114              		.loc 1 56 0 is_stmt 1
 115 0030 BB89     		ldrh	r3, [r7, #12]
 116              	.LVL9:
 117 0032 9A1C     		adds	r2, r3, #2
 118 0034 27F83250 		strh	r5, [r7, r2, lsl #3]	@ movhi
  57:messagebox.c  ****     messagebox->write_idx = messagebox->write_idx +1;
 119              		.loc 1 57 0
 120 0038 0133     		adds	r3, r3, #1
 121 003a 9BB2     		uxth	r3, r3
  58:messagebox.c  ****     messagebox->write_idx = messagebox->write_idx % POSTBOX_SIZE;
 122              		.loc 1 58 0
 123 003c 0B4A     		ldr	r2, .L9
 124 003e A2FB0312 		umull	r1, r2, r2, r3
 125 0042 D208     		lsrs	r2, r2, #3
 126 0044 02EB8202 		add	r2, r2, r2, lsl #2
 127 0048 5100     		lsls	r1, r2, #1
 128 004a 5B1A     		subs	r3, r3, r1
 129 004c BB81     		strh	r3, [r7, #12]	@ movhi
  59:messagebox.c  ****     messagebox->filllevel = messagebox->filllevel +1;
 130              		.loc 1 59 0
 131 004e FB89     		ldrh	r3, [r7, #14]
 132 0050 0133     		adds	r3, r3, #1
 133 0052 FB81     		strh	r3, [r7, #14]	@ movhi
  60:messagebox.c  ****     
  61:messagebox.c  ****     SetEvent(messagebox->m_task, messagebox->m_ev);
 134              		.loc 1 61 0
 135 0054 3968     		ldr	r1, [r7]
 136 0056 7868     		ldr	r0, [r7, #4]
 137              	.LVL10:
 138 0058 FFF7FEFF 		bl	EE_oo_SetEvent
 139              	.LVL11:
  62:messagebox.c  ****     
  63:messagebox.c  ****     return RC_SUCCESS; 
 140              		.loc 1 63 0
 141 005c 0020     		movs	r0, #0
 142 005e F8BD     		pop	{r3, r4, r5, r6, r7, pc}
 143              	.LVL12:
 144              	.L6:
  30:messagebox.c  ****     }
 145              		.loc 1 30 0
 146 0060 6FF00700 		mvn	r0, #7
 147              	.LVL13:
 148 0064 F8BD     		pop	{r3, r4, r5, r6, r7, pc}
 149              	.LVL14:
 150              	.L7:
  39:messagebox.c  ****     }
 151              		.loc 1 39 0
 152 0066 6FF00300 		mvn	r0, #3
 153              	.LVL15:
  64:messagebox.c  **** }
 154              		.loc 1 64 0
 155 006a F8BD     		pop	{r3, r4, r5, r6, r7, pc}
 156              	.LVL16:
 157              	.L10:
 158              		.align	2
 159              	.L9:
 160 006c CDCCCCCC 		.word	-858993459
ARM GAS  C:\Users\DABBIR~1\AppData\Local\Temp\ccmSTfDi.s 			page 5


 161              		.cfi_endproc
 162              	.LFE103:
 163              		.size	messagebox_send, .-messagebox_send
 164              		.section	.text.messagebox_receive,"ax",%progbits
 165              		.align	2
 166              		.global	messagebox_receive
 167              		.thumb
 168              		.thumb_func
 169              		.type	messagebox_receive, %function
 170              	messagebox_receive:
 171              	.LFB104:
  65:messagebox.c  **** 
  66:messagebox.c  **** RC_t messagebox_receive(messagebox_t* messagebox, void* data, uint16_t size)
  67:messagebox.c  **** {
 172              		.loc 1 67 0
 173              		.cfi_startproc
 174              		@ args = 0, pretend = 0, frame = 0
 175              		@ frame_needed = 0, uses_anonymous_args = 0
 176              	.LVL17:
 177 0000 38B5     		push	{r3, r4, r5, lr}
 178              		.cfi_def_cfa_offset 16
 179              		.cfi_offset 3, -16
 180              		.cfi_offset 4, -12
 181              		.cfi_offset 5, -8
 182              		.cfi_offset 14, -4
  68:messagebox.c  ****     message_t* local_message; 
  69:messagebox.c  ****     // Check fill level
  70:messagebox.c  ****     if (messagebox->filllevel <= 0){
 183              		.loc 1 70 0
 184 0002 C389     		ldrh	r3, [r0, #14]
 185 0004 3BB3     		cbz	r3, .L15
  71:messagebox.c  ****         //UART_LOG_PutString("MESSAGEBOX RECEIVE FAILED!"); 
  72:messagebox.c  ****         return RC_ERROR_BUFFER_EMTPY;
  73:messagebox.c  ****     }
  74:messagebox.c  ****     
  75:messagebox.c  ****     // get message as pointer
  76:messagebox.c  ****     local_message = &messagebox->message[messagebox->read_idx]; 
 186              		.loc 1 76 0
 187 0006 4589     		ldrh	r5, [r0, #10]
 188 0008 AB1C     		adds	r3, r5, #2
 189 000a 00EBC303 		add	r3, r0, r3, lsl #3
 190              	.LVL18:
  77:messagebox.c  ****     
  78:messagebox.c  ****     // check if pointer is NULL
  79:messagebox.c  ****     if(local_message == 0){
 191              		.loc 1 79 0
 192 000e 2BB3     		cbz	r3, .L16
 193 0010 0023     		movs	r3, #0
 194              	.LVL19:
 195 0012 06E0     		b	.L13
 196              	.LVL20:
 197              	.L14:
 198              	.LBB3:
  80:messagebox.c  ****         //UART_LOG_PutString("MESSAGEBOX RECEIVE FAILED!"); 
  81:messagebox.c  ****         return RC_ERROR_MEMORY;
  82:messagebox.c  ****     }
  83:messagebox.c  ****     
ARM GAS  C:\Users\DABBIR~1\AppData\Local\Temp\ccmSTfDi.s 			page 6


  84:messagebox.c  ****     // Fill data with the elements of the message
  85:messagebox.c  ****     for (int i = 0; i < size; i++)
  86:messagebox.c  ****     {
  87:messagebox.c  ****         ((uint8_t*)data)[i] = ((uint8_t*)local_message->m_pBuffer)[i];    
 199              		.loc 1 87 0 discriminator 3
 200 0014 AC1C     		adds	r4, r5, #2
 201 0016 00EBC404 		add	r4, r0, r4, lsl #3
 202 001a 6468     		ldr	r4, [r4, #4]
 203 001c E45C     		ldrb	r4, [r4, r3]	@ zero_extendqisi2
 204 001e CC54     		strb	r4, [r1, r3]
  85:messagebox.c  ****     {
 205              		.loc 1 85 0 discriminator 3
 206 0020 0133     		adds	r3, r3, #1
 207              	.LVL21:
 208              	.L13:
  85:messagebox.c  ****     {
 209              		.loc 1 85 0 is_stmt 0 discriminator 1
 210 0022 9342     		cmp	r3, r2
 211 0024 F6DB     		blt	.L14
 212 0026 0446     		mov	r4, r0
 213              	.LBE3:
  88:messagebox.c  ****     }
  89:messagebox.c  ****     
  90:messagebox.c  ****     // Free the memory
  91:messagebox.c  ****     free(local_message->m_pBuffer);
 214              		.loc 1 91 0 is_stmt 1
 215 0028 0235     		adds	r5, r5, #2
 216              	.LVL22:
 217 002a 00EBC505 		add	r5, r0, r5, lsl #3
 218              	.LVL23:
 219 002e 6868     		ldr	r0, [r5, #4]
 220              	.LVL24:
 221 0030 FFF7FEFF 		bl	free
 222              	.LVL25:
  92:messagebox.c  ****     
  93:messagebox.c  ****     // INcrement read index and decrement filllevel
  94:messagebox.c  ****     messagebox->read_idx = messagebox->read_idx + 1;
 223              		.loc 1 94 0
 224 0034 6289     		ldrh	r2, [r4, #10]
 225 0036 0132     		adds	r2, r2, #1
 226 0038 92B2     		uxth	r2, r2
  95:messagebox.c  ****     messagebox->read_idx = messagebox->read_idx % POSTBOX_SIZE;
 227              		.loc 1 95 0
 228 003a 0A4B     		ldr	r3, .L18
 229 003c A3FB0213 		umull	r1, r3, r3, r2
 230 0040 DB08     		lsrs	r3, r3, #3
 231 0042 03EB8303 		add	r3, r3, r3, lsl #2
 232 0046 5900     		lsls	r1, r3, #1
 233 0048 521A     		subs	r2, r2, r1
 234 004a 6281     		strh	r2, [r4, #10]	@ movhi
  96:messagebox.c  ****     messagebox->filllevel = messagebox->filllevel - 1;
 235              		.loc 1 96 0
 236 004c E389     		ldrh	r3, [r4, #14]
 237 004e 013B     		subs	r3, r3, #1
 238 0050 E381     		strh	r3, [r4, #14]	@ movhi
  97:messagebox.c  ****     
  98:messagebox.c  ****     return RC_SUCCESS;
ARM GAS  C:\Users\DABBIR~1\AppData\Local\Temp\ccmSTfDi.s 			page 7


 239              		.loc 1 98 0
 240 0052 0020     		movs	r0, #0
 241 0054 38BD     		pop	{r3, r4, r5, pc}
 242              	.LVL26:
 243              	.L15:
  72:messagebox.c  ****     }
 244              		.loc 1 72 0
 245 0056 6FF00800 		mvn	r0, #8
 246              	.LVL27:
 247 005a 38BD     		pop	{r3, r4, r5, pc}
 248              	.LVL28:
 249              	.L16:
  81:messagebox.c  ****     }
 250              		.loc 1 81 0
 251 005c 6FF00300 		mvn	r0, #3
 252              	.LVL29:
  99:messagebox.c  **** }
 253              		.loc 1 99 0
 254 0060 38BD     		pop	{r3, r4, r5, pc}
 255              	.LVL30:
 256              	.L19:
 257 0062 00BF     		.align	2
 258              	.L18:
 259 0064 CDCCCCCC 		.word	-858993459
 260              		.cfi_endproc
 261              	.LFE104:
 262              		.size	messagebox_receive, .-messagebox_receive
 263              		.text
 264              	.Letext0:
 265              		.file 2 ".\\source\\bsw/global.h"
 266              		.file 3 "c:\\program files (x86)\\cypress\\psoc creator\\4.4\\psoc creator\\import\\gnu\\arm\\5.4.
 267              		.file 4 "c:\\program files (x86)\\cypress\\psoc creator\\4.4\\psoc creator\\import\\gnu\\arm\\5.4.
 268              		.file 5 "Generated_Source\\PSoC5/ErikaOS_1_common_ee_types.inc"
 269              		.file 6 "Generated_Source\\PSoC5/ErikaOS_1_cortex_mx_ee_cpu.inc"
 270              		.file 7 "Generated_Source\\PSoC5/ErikaOS_1_ee_oo_common.inc"
 271              		.file 8 "messagebox.h"
 272              		.file 9 "Generated_Source\\PSoC5/ErikaOS_1_ee_oo_intfunc.inc"
 273              		.file 10 "Generated_Source\\PSoC5/ErikaOS_1_cortex_mx_ee_context.inc"
 274              		.file 11 "Generated_Source\\PSoC5/ErikaOS_1_common_ee_primitives.inc"
 275              		.file 12 "Generated_Source\\PSoC5/core_cm3.h"
 276              		.file 13 "<built-in>"
 277              		.file 14 "Generated_Source\\PSoC5/ErikaOS_1_ee_oo_kernel.inc"